ARM GAS  C:\Users\21945\AppData\Local\Temp\cc3xKqqk.s 			page 1


   1              		.cpu cortex-m3
   2              		.arch armv7-m
   3              		.fpu softvfp
   4              		.eabi_attribute 20, 1
   5              		.eabi_attribute 21, 1
   6              		.eabi_attribute 23, 3
   7              		.eabi_attribute 24, 1
   8              		.eabi_attribute 25, 1
   9              		.eabi_attribute 26, 1
  10              		.eabi_attribute 30, 1
  11              		.eabi_attribute 34, 1
  12              		.eabi_attribute 18, 4
  13              		.file	"ctr.c"
  14              		.text
  15              	.Ltext0:
  16              		.cfi_sections	.debug_frame
  17              		.section	.text.EnergyMachine_Init,"ax",%progbits
  18              		.align	1
  19              		.global	EnergyMachine_Init
  20              		.syntax unified
  21              		.thumb
  22              		.thumb_func
  24              	EnergyMachine_Init:
  25              	.LFB65:
  26              		.file 1 "ContrlSys/ctr.c"
   1:ContrlSys/ctr.c **** #include "ctr.h"
   2:ContrlSys/ctr.c **** #include "WS2812.h"
   3:ContrlSys/ctr.c **** #include "dma.h"
   4:ContrlSys/ctr.c **** #include "vibra.h"
   5:ContrlSys/ctr.c **** #include "Cmaster.h"
   6:ContrlSys/ctr.c **** #include "stdlib.h"
   7:ContrlSys/ctr.c **** 
   8:ContrlSys/ctr.c **** int Fan_num = 0;
   9:ContrlSys/ctr.c **** int i_count = 0;
  10:ContrlSys/ctr.c **** int Flow_flag;//1,2,3
  11:ContrlSys/ctr.c **** uint8_t num=0;
  12:ContrlSys/ctr.c **** uint8_t rand_num = 0;
  13:ContrlSys/ctr.c **** uint8_t Rand_zu[2][5]={{0,1,2,3,4},{4,3,2,1,0}};
  14:ContrlSys/ctr.c **** 
  15:ContrlSys/ctr.c **** EnergySys ES;
  16:ContrlSys/ctr.c **** 
  17:ContrlSys/ctr.c **** /*
  18:ContrlSys/ctr.c **** *能量机关初始化
  19:ContrlSys/ctr.c **** *
  20:ContrlSys/ctr.c **** **/
  21:ContrlSys/ctr.c **** void EnergyMachine_Init()
  22:ContrlSys/ctr.c **** {
  27              		.loc 1 22 1 view -0
  28              		.cfi_startproc
  29              		@ args = 0, pretend = 0, frame = 0
  30              		@ frame_needed = 0, uses_anonymous_args = 0
  31              		@ link register save eliminated.
  23:ContrlSys/ctr.c **** 		ES.fan[0].tim = &htim4;//PB6
  32              		.loc 1 23 3 view .LVU1
  33              		.loc 1 23 17 is_stmt 0 view .LVU2
  34 0000 094B     		ldr	r3, .L2
  35 0002 0A4A     		ldr	r2, .L2+4
ARM GAS  C:\Users\21945\AppData\Local\Temp\cc3xKqqk.s 			page 2


  36 0004 9A60     		str	r2, [r3, #8]
  24:ContrlSys/ctr.c ****     ES.fan[1].tim = &htim2;//PA15
  37              		.loc 1 24 5 is_stmt 1 view .LVU3
  38              		.loc 1 24 19 is_stmt 0 view .LVU4
  39 0006 0A4A     		ldr	r2, .L2+8
  40 0008 9A61     		str	r2, [r3, #24]
  25:ContrlSys/ctr.c ****     ES.fan[2].tim = &htim5;//PA0
  41              		.loc 1 25 5 is_stmt 1 view .LVU5
  42              		.loc 1 25 19 is_stmt 0 view .LVU6
  43 000a 0A4A     		ldr	r2, .L2+12
  44 000c 9A62     		str	r2, [r3, #40]
  26:ContrlSys/ctr.c ****     ES.fan[3].tim = &htim3;//PB1
  45              		.loc 1 26 5 is_stmt 1 view .LVU7
  46              		.loc 1 26 19 is_stmt 0 view .LVU8
  47 000e 0A4A     		ldr	r2, .L2+16
  48 0010 9A63     		str	r2, [r3, #56]
  27:ContrlSys/ctr.c ****     ES.fan[4].tim = &htim1;//PA8
  49              		.loc 1 27 5 is_stmt 1 view .LVU9
  50              		.loc 1 27 19 is_stmt 0 view .LVU10
  51 0012 0A4A     		ldr	r2, .L2+20
  52 0014 9A64     		str	r2, [r3, #72]
  28:ContrlSys/ctr.c ****     ES.fan[0].Channel = TIM_CHANNEL_1;
  53              		.loc 1 28 5 is_stmt 1 view .LVU11
  54              		.loc 1 28 23 is_stmt 0 view .LVU12
  55 0016 0022     		movs	r2, #0
  56 0018 DA60     		str	r2, [r3, #12]
  29:ContrlSys/ctr.c ****     ES.fan[1].Channel = TIM_CHANNEL_1;
  57              		.loc 1 29 5 is_stmt 1 view .LVU13
  58              		.loc 1 29 23 is_stmt 0 view .LVU14
  59 001a DA61     		str	r2, [r3, #28]
  30:ContrlSys/ctr.c ****     ES.fan[2].Channel = TIM_CHANNEL_1;
  60              		.loc 1 30 5 is_stmt 1 view .LVU15
  61              		.loc 1 30 23 is_stmt 0 view .LVU16
  62 001c DA62     		str	r2, [r3, #44]
  31:ContrlSys/ctr.c ****     ES.fan[3].Channel = TIM_CHANNEL_4;
  63              		.loc 1 31 5 is_stmt 1 view .LVU17
  64              		.loc 1 31 23 is_stmt 0 view .LVU18
  65 001e 0C21     		movs	r1, #12
  66 0020 D963     		str	r1, [r3, #60]
  32:ContrlSys/ctr.c ****     ES.fan[4].Channel = TIM_CHANNEL_1;
  67              		.loc 1 32 5 is_stmt 1 view .LVU19
  68              		.loc 1 32 23 is_stmt 0 view .LVU20
  69 0022 DA64     		str	r2, [r3, #76]
  33:ContrlSys/ctr.c **** }
  70              		.loc 1 33 1 view .LVU21
  71 0024 7047     		bx	lr
  72              	.L3:
  73 0026 00BF     		.align	2
  74              	.L2:
  75 0028 00000000 		.word	.LANCHOR0
  76 002c 00000000 		.word	htim4
  77 0030 00000000 		.word	htim2
  78 0034 00000000 		.word	htim5
  79 0038 00000000 		.word	htim3
  80 003c 00000000 		.word	htim1
  81              		.cfi_endproc
  82              	.LFE65:
ARM GAS  C:\Users\21945\AppData\Local\Temp\cc3xKqqk.s 			page 3


  84              		.section	.text.Fan_Init,"ax",%progbits
  85              		.align	1
  86              		.global	Fan_Init
  87              		.syntax unified
  88              		.thumb
  89              		.thumb_func
  91              	Fan_Init:
  92              	.LFB66:
  34:ContrlSys/ctr.c **** 
  35:ContrlSys/ctr.c **** /*
  36:ContrlSys/ctr.c **** *扇叶初始化
  37:ContrlSys/ctr.c **** *
  38:ContrlSys/ctr.c **** *
  39:ContrlSys/ctr.c **** **/
  40:ContrlSys/ctr.c **** void Fan_Init()
  41:ContrlSys/ctr.c **** {
  93              		.loc 1 41 1 is_stmt 1 view -0
  94              		.cfi_startproc
  95              		@ args = 0, pretend = 0, frame = 0
  96              		@ frame_needed = 0, uses_anonymous_args = 0
  97              		@ link register save eliminated.
  42:ContrlSys/ctr.c **** 	ES.fan[0].mode = 0;
  98              		.loc 1 42 2 view .LVU23
  99              		.loc 1 42 17 is_stmt 0 view .LVU24
 100 0000 044B     		ldr	r3, .L5
 101 0002 0022     		movs	r2, #0
 102 0004 1A60     		str	r2, [r3]
  43:ContrlSys/ctr.c **** 	ES.fan[1].mode = 0;
 103              		.loc 1 43 2 is_stmt 1 view .LVU25
 104              		.loc 1 43 17 is_stmt 0 view .LVU26
 105 0006 1A61     		str	r2, [r3, #16]
  44:ContrlSys/ctr.c **** 	ES.fan[2].mode = 0;
 106              		.loc 1 44 2 is_stmt 1 view .LVU27
 107              		.loc 1 44 17 is_stmt 0 view .LVU28
 108 0008 1A62     		str	r2, [r3, #32]
  45:ContrlSys/ctr.c **** 	ES.fan[3].mode = 0;
 109              		.loc 1 45 2 is_stmt 1 view .LVU29
 110              		.loc 1 45 17 is_stmt 0 view .LVU30
 111 000a 1A63     		str	r2, [r3, #48]
  46:ContrlSys/ctr.c **** 	ES.fan[4].mode = 0;
 112              		.loc 1 46 2 is_stmt 1 view .LVU31
 113              		.loc 1 46 17 is_stmt 0 view .LVU32
 114 000c 1A64     		str	r2, [r3, #64]
  47:ContrlSys/ctr.c **** 	ES.fan[5].mode = 1;
 115              		.loc 1 47 2 is_stmt 1 view .LVU33
 116              		.loc 1 47 17 is_stmt 0 view .LVU34
 117 000e 0122     		movs	r2, #1
 118 0010 1A65     		str	r2, [r3, #80]
  48:ContrlSys/ctr.c **** 	
  49:ContrlSys/ctr.c **** }
 119              		.loc 1 49 1 view .LVU35
 120 0012 7047     		bx	lr
 121              	.L6:
 122              		.align	2
 123              	.L5:
 124 0014 00000000 		.word	.LANCHOR0
 125              		.cfi_endproc
ARM GAS  C:\Users\21945\AppData\Local\Temp\cc3xKqqk.s 			page 4


 126              	.LFE66:
 128              		.section	.text.LED_YUAN_Init,"ax",%progbits
 129              		.align	1
 130              		.global	LED_YUAN_Init
 131              		.syntax unified
 132              		.thumb
 133              		.thumb_func
 135              	LED_YUAN_Init:
 136              	.LFB67:
  50:ContrlSys/ctr.c **** 
  51:ContrlSys/ctr.c **** /*
  52:ContrlSys/ctr.c **** *
  53:ContrlSys/ctr.c **** *圆圈初始赋值
  54:ContrlSys/ctr.c **** *
  55:ContrlSys/ctr.c **** **/
  56:ContrlSys/ctr.c **** void LED_YUAN_Init()
  57:ContrlSys/ctr.c **** {
 137              		.loc 1 57 1 is_stmt 1 view -0
 138              		.cfi_startproc
 139              		@ args = 0, pretend = 0, frame = 0
 140              		@ frame_needed = 0, uses_anonymous_args = 0
 141              		@ link register save eliminated.
  58:ContrlSys/ctr.c **** 	uint32_t i,j;
 142              		.loc 1 58 2 view .LVU37
  59:ContrlSys/ctr.c **** 	for(i=WS2812B_LED_QUANTITY;i<WS2812B_LED_QUANTITY+OUTER;i++)
 143              		.loc 1 59 2 view .LVU38
 144              	.LVL0:
 145              		.loc 1 59 7 is_stmt 0 view .LVU39
 146 0000 AF23     		movs	r3, #175
 147              		.loc 1 59 2 view .LVU40
 148 0002 04E0     		b	.L8
 149              	.LVL1:
 150              	.L9:
  60:ContrlSys/ctr.c **** 	{
  61:ContrlSys/ctr.c **** 		WS2812B_Buf[i]=0x0000FF;
 151              		.loc 1 61 3 is_stmt 1 discriminator 3 view .LVU41
 152              		.loc 1 61 17 is_stmt 0 discriminator 3 view .LVU42
 153 0004 1C4A     		ldr	r2, .L26
 154 0006 FF21     		movs	r1, #255
 155 0008 42F82310 		str	r1, [r2, r3, lsl #2]
  59:ContrlSys/ctr.c **** 	for(i=WS2812B_LED_QUANTITY;i<WS2812B_LED_QUANTITY+OUTER;i++)
 156              		.loc 1 59 58 is_stmt 1 discriminator 3 view .LVU43
  59:ContrlSys/ctr.c **** 	for(i=WS2812B_LED_QUANTITY;i<WS2812B_LED_QUANTITY+OUTER;i++)
 157              		.loc 1 59 59 is_stmt 0 discriminator 3 view .LVU44
 158 000c 0133     		adds	r3, r3, #1
 159              	.LVL2:
 160              	.L8:
  59:ContrlSys/ctr.c **** 	for(i=WS2812B_LED_QUANTITY;i<WS2812B_LED_QUANTITY+OUTER;i++)
 161              		.loc 1 59 29 is_stmt 1 discriminator 1 view .LVU45
  59:ContrlSys/ctr.c **** 	for(i=WS2812B_LED_QUANTITY;i<WS2812B_LED_QUANTITY+OUTER;i++)
 162              		.loc 1 59 2 is_stmt 0 discriminator 1 view .LVU46
 163 000e B3F5A87F 		cmp	r3, #336
 164 0012 F7D9     		bls	.L9
  62:ContrlSys/ctr.c **** 	}
  63:ContrlSys/ctr.c **** 	
  64:ContrlSys/ctr.c **** 	for(j=WS2812B_LED_QUANTITY;j<WS2812B_LED_QUANTITY+OUTER;j++)
 165              		.loc 1 64 7 view .LVU47
ARM GAS  C:\Users\21945\AppData\Local\Temp\cc3xKqqk.s 			page 5


 166 0014 AF21     		movs	r1, #175
 167 0016 26E0     		b	.L17
 168              	.LVL3:
 169              	.L11:
 170              	.LCFI0:
 171              		.cfi_def_cfa_offset 4
 172              		.cfi_offset 4, -4
  65:ContrlSys/ctr.c **** 	{
  66:ContrlSys/ctr.c **** 		for(i=0;i<24;i++)
  67:ContrlSys/ctr.c **** 		{
  68:ContrlSys/ctr.c **** 			if(WS2812B_Buf[j]&(0x800000>>i)){WS2812B_Bit[j*24+i+1]=45;}  //BIT位为1 设置相应的占空比
  69:ContrlSys/ctr.c **** 			else{WS2812B_Bit[j*24+i+1]=25;}
 173              		.loc 1 69 9 is_stmt 1 view .LVU48
 174              		.loc 1 69 22 is_stmt 0 view .LVU49
 175 0018 01EB4100 		add	r0, r1, r1, lsl #1
 176 001c C200     		lsls	r2, r0, #3
 177              		.loc 1 69 25 view .LVU50
 178 001e 1A44     		add	r2, r2, r3
 179              		.loc 1 69 27 view .LVU51
 180 0020 0132     		adds	r2, r2, #1
 181              		.loc 1 69 30 view .LVU52
 182 0022 1648     		ldr	r0, .L26+4
 183 0024 1924     		movs	r4, #25
 184 0026 40F82240 		str	r4, [r0, r2, lsl #2]
 185              	.L12:
  66:ContrlSys/ctr.c **** 		{
 186              		.loc 1 66 16 is_stmt 1 discriminator 2 view .LVU53
  66:ContrlSys/ctr.c **** 		{
 187              		.loc 1 66 17 is_stmt 0 discriminator 2 view .LVU54
 188 002a 0133     		adds	r3, r3, #1
 189              	.LVL4:
 190              	.L14:
  66:ContrlSys/ctr.c **** 		{
 191              		.loc 1 66 11 is_stmt 1 discriminator 1 view .LVU55
  66:ContrlSys/ctr.c **** 		{
 192              		.loc 1 66 3 is_stmt 0 discriminator 1 view .LVU56
 193 002c 172B     		cmp	r3, #23
 194 002e 11D8     		bhi	.L22
 195              	.L13:
  68:ContrlSys/ctr.c **** 			else{WS2812B_Bit[j*24+i+1]=25;}
 196              		.loc 1 68 4 is_stmt 1 view .LVU57
  68:ContrlSys/ctr.c **** 			else{WS2812B_Bit[j*24+i+1]=25;}
 197              		.loc 1 68 18 is_stmt 0 view .LVU58
 198 0030 114A     		ldr	r2, .L26
 199 0032 52F82100 		ldr	r0, [r2, r1, lsl #2]
  68:ContrlSys/ctr.c **** 			else{WS2812B_Bit[j*24+i+1]=25;}
 200              		.loc 1 68 31 view .LVU59
 201 0036 4FF40002 		mov	r2, #8388608
 202 003a 1A41     		asrs	r2, r2, r3
  68:ContrlSys/ctr.c **** 			else{WS2812B_Bit[j*24+i+1]=25;}
 203              		.loc 1 68 6 view .LVU60
 204 003c 1042     		tst	r0, r2
 205 003e EBD0     		beq	.L11
  68:ContrlSys/ctr.c **** 			else{WS2812B_Bit[j*24+i+1]=25;}
 206              		.loc 1 68 37 is_stmt 1 discriminator 1 view .LVU61
  68:ContrlSys/ctr.c **** 			else{WS2812B_Bit[j*24+i+1]=25;}
 207              		.loc 1 68 50 is_stmt 0 discriminator 1 view .LVU62
ARM GAS  C:\Users\21945\AppData\Local\Temp\cc3xKqqk.s 			page 6


 208 0040 01EB4100 		add	r0, r1, r1, lsl #1
 209 0044 C200     		lsls	r2, r0, #3
  68:ContrlSys/ctr.c **** 			else{WS2812B_Bit[j*24+i+1]=25;}
 210              		.loc 1 68 53 discriminator 1 view .LVU63
 211 0046 1A44     		add	r2, r2, r3
  68:ContrlSys/ctr.c **** 			else{WS2812B_Bit[j*24+i+1]=25;}
 212              		.loc 1 68 55 discriminator 1 view .LVU64
 213 0048 0132     		adds	r2, r2, #1
  68:ContrlSys/ctr.c **** 			else{WS2812B_Bit[j*24+i+1]=25;}
 214              		.loc 1 68 58 discriminator 1 view .LVU65
 215 004a 0C48     		ldr	r0, .L26+4
 216 004c 2D24     		movs	r4, #45
 217 004e 40F82240 		str	r4, [r0, r2, lsl #2]
 218 0052 EAE7     		b	.L12
 219              	.L22:
  64:ContrlSys/ctr.c **** 	{
 220              		.loc 1 64 58 is_stmt 1 discriminator 2 view .LVU66
  64:ContrlSys/ctr.c **** 	{
 221              		.loc 1 64 59 is_stmt 0 discriminator 2 view .LVU67
 222 0054 0131     		adds	r1, r1, #1
 223              	.LVL5:
  64:ContrlSys/ctr.c **** 	{
 224              		.loc 1 64 29 is_stmt 1 discriminator 2 view .LVU68
  64:ContrlSys/ctr.c **** 	{
 225              		.loc 1 64 2 is_stmt 0 discriminator 2 view .LVU69
 226 0056 B1F5A87F 		cmp	r1, #336
 227 005a 01D8     		bhi	.L23
  66:ContrlSys/ctr.c **** 		{
 228              		.loc 1 66 8 view .LVU70
 229 005c 0023     		movs	r3, #0
 230              	.LVL6:
  66:ContrlSys/ctr.c **** 		{
 231              		.loc 1 66 8 view .LVU71
 232 005e E5E7     		b	.L14
 233              	.LVL7:
 234              	.L23:
  70:ContrlSys/ctr.c **** 		}
  71:ContrlSys/ctr.c **** 	}
  72:ContrlSys/ctr.c **** 
  73:ContrlSys/ctr.c **** }
 235              		.loc 1 73 1 view .LVU72
 236 0060 10BC     		pop	{r4}
 237              	.LCFI1:
 238              		.cfi_restore 4
 239              		.cfi_def_cfa_offset 0
 240 0062 7047     		bx	lr
 241              	.L25:
  64:ContrlSys/ctr.c **** 	{
 242              		.loc 1 64 58 is_stmt 1 view .LVU73
  64:ContrlSys/ctr.c **** 	{
 243              		.loc 1 64 59 is_stmt 0 view .LVU74
 244 0064 0131     		adds	r1, r1, #1
 245              	.LVL8:
 246              	.L17:
  64:ContrlSys/ctr.c **** 	{
 247              		.loc 1 64 29 is_stmt 1 view .LVU75
  64:ContrlSys/ctr.c **** 	{
ARM GAS  C:\Users\21945\AppData\Local\Temp\cc3xKqqk.s 			page 7


 248              		.loc 1 64 2 is_stmt 0 view .LVU76
 249 0066 B1F5A87F 		cmp	r1, #336
 250 006a 04D8     		bhi	.L24
  66:ContrlSys/ctr.c **** 		{
 251              		.loc 1 66 8 view .LVU77
 252 006c 0023     		movs	r3, #0
 253              	.LVL9:
  66:ContrlSys/ctr.c **** 		{
 254              		.loc 1 66 11 is_stmt 1 view .LVU78
  66:ContrlSys/ctr.c **** 		{
 255              		.loc 1 66 3 is_stmt 0 view .LVU79
 256 006e 172B     		cmp	r3, #23
 257 0070 F8D8     		bhi	.L25
  57:ContrlSys/ctr.c **** 	uint32_t i,j;
 258              		.loc 1 57 1 view .LVU80
 259 0072 10B4     		push	{r4}
 260              	.LCFI2:
 261              		.cfi_def_cfa_offset 4
 262              		.cfi_offset 4, -4
 263 0074 DCE7     		b	.L13
 264              	.L24:
 265              	.LCFI3:
 266              		.cfi_def_cfa_offset 0
 267              		.cfi_restore 4
  57:ContrlSys/ctr.c **** 	uint32_t i,j;
 268              		.loc 1 57 1 view .LVU81
 269 0076 7047     		bx	lr
 270              	.L27:
 271              		.align	2
 272              	.L26:
 273 0078 00000000 		.word	WS2812B_Buf
 274 007c 00000000 		.word	WS2812B_Bit
 275              		.cfi_endproc
 276              	.LFE67:
 278              		.section	.text.LINE_Init,"ax",%progbits
 279              		.align	1
 280              		.global	LINE_Init
 281              		.syntax unified
 282              		.thumb
 283              		.thumb_func
 285              	LINE_Init:
 286              	.LFB68:
  74:ContrlSys/ctr.c **** 
  75:ContrlSys/ctr.c **** /*
  76:ContrlSys/ctr.c **** *
  77:ContrlSys/ctr.c **** *边框赋予初值
  78:ContrlSys/ctr.c **** *
  79:ContrlSys/ctr.c **** *
  80:ContrlSys/ctr.c **** **/
  81:ContrlSys/ctr.c **** void LINE_Init()
  82:ContrlSys/ctr.c **** {
 287              		.loc 1 82 1 is_stmt 1 view -0
 288              		.cfi_startproc
 289              		@ args = 0, pretend = 0, frame = 0
 290              		@ frame_needed = 0, uses_anonymous_args = 0
 291              		@ link register save eliminated.
  83:ContrlSys/ctr.c **** 		uint32_t i,j;
ARM GAS  C:\Users\21945\AppData\Local\Temp\cc3xKqqk.s 			page 8


 292              		.loc 1 83 3 view .LVU83
  84:ContrlSys/ctr.c **** 	for(i=TWO_Number;i<All_Number;i++)
 293              		.loc 1 84 2 view .LVU84
 294              	.LVL10:
 295              		.loc 1 84 7 is_stmt 0 view .LVU85
 296 0000 40F25113 		movw	r3, #337
 297              		.loc 1 84 2 view .LVU86
 298 0004 04E0     		b	.L29
 299              	.LVL11:
 300              	.L30:
  85:ContrlSys/ctr.c **** 	{
  86:ContrlSys/ctr.c **** 		WS2812B_Buf[i]=0x0000FF;
 301              		.loc 1 86 3 is_stmt 1 discriminator 3 view .LVU87
 302              		.loc 1 86 17 is_stmt 0 discriminator 3 view .LVU88
 303 0006 1D4A     		ldr	r2, .L47
 304 0008 FF21     		movs	r1, #255
 305 000a 42F82310 		str	r1, [r2, r3, lsl #2]
  84:ContrlSys/ctr.c **** 	for(i=TWO_Number;i<All_Number;i++)
 306              		.loc 1 84 32 is_stmt 1 discriminator 3 view .LVU89
  84:ContrlSys/ctr.c **** 	for(i=TWO_Number;i<All_Number;i++)
 307              		.loc 1 84 33 is_stmt 0 discriminator 3 view .LVU90
 308 000e 0133     		adds	r3, r3, #1
 309              	.LVL12:
 310              	.L29:
  84:ContrlSys/ctr.c **** 	for(i=TWO_Number;i<All_Number;i++)
 311              		.loc 1 84 19 is_stmt 1 discriminator 1 view .LVU91
  84:ContrlSys/ctr.c **** 	for(i=TWO_Number;i<All_Number;i++)
 312              		.loc 1 84 2 is_stmt 0 discriminator 1 view .LVU92
 313 0010 B3F5C87F 		cmp	r3, #400
 314 0014 F7D9     		bls	.L30
  87:ContrlSys/ctr.c **** 	}
  88:ContrlSys/ctr.c **** 	
  89:ContrlSys/ctr.c **** 	for(j=TWO_Number;j<All_Number;j++)
 315              		.loc 1 89 7 view .LVU93
 316 0016 40F25111 		movw	r1, #337
 317 001a 26E0     		b	.L38
 318              	.LVL13:
 319              	.L32:
 320              	.LCFI4:
 321              		.cfi_def_cfa_offset 4
 322              		.cfi_offset 4, -4
  90:ContrlSys/ctr.c **** 	{
  91:ContrlSys/ctr.c **** 		for(i=0;i<24;i++)
  92:ContrlSys/ctr.c **** 		{
  93:ContrlSys/ctr.c **** 			if(WS2812B_Buf[j]&(0x800000>>i)){WS2812B_Bit[j*24+i+1]=45;}  //BIT位为1 设置相应的占空比
  94:ContrlSys/ctr.c **** 			else{WS2812B_Bit[j*24+i+1]=25;}
 323              		.loc 1 94 9 is_stmt 1 view .LVU94
 324              		.loc 1 94 22 is_stmt 0 view .LVU95
 325 001c 01EB4100 		add	r0, r1, r1, lsl #1
 326 0020 C200     		lsls	r2, r0, #3
 327              		.loc 1 94 25 view .LVU96
 328 0022 1A44     		add	r2, r2, r3
 329              		.loc 1 94 27 view .LVU97
 330 0024 0132     		adds	r2, r2, #1
 331              		.loc 1 94 30 view .LVU98
 332 0026 1648     		ldr	r0, .L47+4
 333 0028 1924     		movs	r4, #25
ARM GAS  C:\Users\21945\AppData\Local\Temp\cc3xKqqk.s 			page 9


 334 002a 40F82240 		str	r4, [r0, r2, lsl #2]
 335              	.L33:
  91:ContrlSys/ctr.c **** 		{
 336              		.loc 1 91 16 is_stmt 1 discriminator 2 view .LVU99
  91:ContrlSys/ctr.c **** 		{
 337              		.loc 1 91 17 is_stmt 0 discriminator 2 view .LVU100
 338 002e 0133     		adds	r3, r3, #1
 339              	.LVL14:
 340              	.L35:
  91:ContrlSys/ctr.c **** 		{
 341              		.loc 1 91 11 is_stmt 1 discriminator 1 view .LVU101
  91:ContrlSys/ctr.c **** 		{
 342              		.loc 1 91 3 is_stmt 0 discriminator 1 view .LVU102
 343 0030 172B     		cmp	r3, #23
 344 0032 11D8     		bhi	.L43
 345              	.L34:
  93:ContrlSys/ctr.c **** 			else{WS2812B_Bit[j*24+i+1]=25;}
 346              		.loc 1 93 4 is_stmt 1 view .LVU103
  93:ContrlSys/ctr.c **** 			else{WS2812B_Bit[j*24+i+1]=25;}
 347              		.loc 1 93 18 is_stmt 0 view .LVU104
 348 0034 114A     		ldr	r2, .L47
 349 0036 52F82100 		ldr	r0, [r2, r1, lsl #2]
  93:ContrlSys/ctr.c **** 			else{WS2812B_Bit[j*24+i+1]=25;}
 350              		.loc 1 93 31 view .LVU105
 351 003a 4FF40002 		mov	r2, #8388608
 352 003e 1A41     		asrs	r2, r2, r3
  93:ContrlSys/ctr.c **** 			else{WS2812B_Bit[j*24+i+1]=25;}
 353              		.loc 1 93 6 view .LVU106
 354 0040 1042     		tst	r0, r2
 355 0042 EBD0     		beq	.L32
  93:ContrlSys/ctr.c **** 			else{WS2812B_Bit[j*24+i+1]=25;}
 356              		.loc 1 93 37 is_stmt 1 discriminator 1 view .LVU107
  93:ContrlSys/ctr.c **** 			else{WS2812B_Bit[j*24+i+1]=25;}
 357              		.loc 1 93 50 is_stmt 0 discriminator 1 view .LVU108
 358 0044 01EB4100 		add	r0, r1, r1, lsl #1
 359 0048 C200     		lsls	r2, r0, #3
  93:ContrlSys/ctr.c **** 			else{WS2812B_Bit[j*24+i+1]=25;}
 360              		.loc 1 93 53 discriminator 1 view .LVU109
 361 004a 1A44     		add	r2, r2, r3
  93:ContrlSys/ctr.c **** 			else{WS2812B_Bit[j*24+i+1]=25;}
 362              		.loc 1 93 55 discriminator 1 view .LVU110
 363 004c 0132     		adds	r2, r2, #1
  93:ContrlSys/ctr.c **** 			else{WS2812B_Bit[j*24+i+1]=25;}
 364              		.loc 1 93 58 discriminator 1 view .LVU111
 365 004e 0C48     		ldr	r0, .L47+4
 366 0050 2D24     		movs	r4, #45
 367 0052 40F82240 		str	r4, [r0, r2, lsl #2]
 368 0056 EAE7     		b	.L33
 369              	.L43:
  89:ContrlSys/ctr.c **** 	{
 370              		.loc 1 89 32 is_stmt 1 discriminator 2 view .LVU112
  89:ContrlSys/ctr.c **** 	{
 371              		.loc 1 89 33 is_stmt 0 discriminator 2 view .LVU113
 372 0058 0131     		adds	r1, r1, #1
 373              	.LVL15:
  89:ContrlSys/ctr.c **** 	{
 374              		.loc 1 89 19 is_stmt 1 discriminator 2 view .LVU114
ARM GAS  C:\Users\21945\AppData\Local\Temp\cc3xKqqk.s 			page 10


  89:ContrlSys/ctr.c **** 	{
 375              		.loc 1 89 2 is_stmt 0 discriminator 2 view .LVU115
 376 005a B1F5C87F 		cmp	r1, #400
 377 005e 01D8     		bhi	.L44
  91:ContrlSys/ctr.c **** 		{
 378              		.loc 1 91 8 view .LVU116
 379 0060 0023     		movs	r3, #0
 380              	.LVL16:
  91:ContrlSys/ctr.c **** 		{
 381              		.loc 1 91 8 view .LVU117
 382 0062 E5E7     		b	.L35
 383              	.LVL17:
 384              	.L44:
  95:ContrlSys/ctr.c **** 		}
  96:ContrlSys/ctr.c **** 	}
  97:ContrlSys/ctr.c **** 
  98:ContrlSys/ctr.c **** }
 385              		.loc 1 98 1 view .LVU118
 386 0064 10BC     		pop	{r4}
 387              	.LCFI5:
 388              		.cfi_restore 4
 389              		.cfi_def_cfa_offset 0
 390 0066 7047     		bx	lr
 391              	.L46:
  89:ContrlSys/ctr.c **** 	{
 392              		.loc 1 89 32 is_stmt 1 view .LVU119
  89:ContrlSys/ctr.c **** 	{
 393              		.loc 1 89 33 is_stmt 0 view .LVU120
 394 0068 0131     		adds	r1, r1, #1
 395              	.LVL18:
 396              	.L38:
  89:ContrlSys/ctr.c **** 	{
 397              		.loc 1 89 19 is_stmt 1 view .LVU121
  89:ContrlSys/ctr.c **** 	{
 398              		.loc 1 89 2 is_stmt 0 view .LVU122
 399 006a B1F5C87F 		cmp	r1, #400
 400 006e 04D8     		bhi	.L45
  91:ContrlSys/ctr.c **** 		{
 401              		.loc 1 91 8 view .LVU123
 402 0070 0023     		movs	r3, #0
 403              	.LVL19:
  91:ContrlSys/ctr.c **** 		{
 404              		.loc 1 91 11 is_stmt 1 view .LVU124
  91:ContrlSys/ctr.c **** 		{
 405              		.loc 1 91 3 is_stmt 0 view .LVU125
 406 0072 172B     		cmp	r3, #23
 407 0074 F8D8     		bhi	.L46
  82:ContrlSys/ctr.c **** 		uint32_t i,j;
 408              		.loc 1 82 1 view .LVU126
 409 0076 10B4     		push	{r4}
 410              	.LCFI6:
 411              		.cfi_def_cfa_offset 4
 412              		.cfi_offset 4, -4
 413 0078 DCE7     		b	.L34
 414              	.L45:
 415              	.LCFI7:
 416              		.cfi_def_cfa_offset 0
ARM GAS  C:\Users\21945\AppData\Local\Temp\cc3xKqqk.s 			page 11


 417              		.cfi_restore 4
  82:ContrlSys/ctr.c **** 		uint32_t i,j;
 418              		.loc 1 82 1 view .LVU127
 419 007a 7047     		bx	lr
 420              	.L48:
 421              		.align	2
 422              	.L47:
 423 007c 00000000 		.word	WS2812B_Buf
 424 0080 00000000 		.word	WS2812B_Bit
 425              		.cfi_endproc
 426              	.LFE68:
 428              		.section	.text.Target_Init,"ax",%progbits
 429              		.align	1
 430              		.global	Target_Init
 431              		.syntax unified
 432              		.thumb
 433              		.thumb_func
 435              	Target_Init:
 436              	.LFB69:
  99:ContrlSys/ctr.c **** 
 100:ContrlSys/ctr.c **** /*
 101:ContrlSys/ctr.c **** *
 102:ContrlSys/ctr.c **** *中心环初始化
 103:ContrlSys/ctr.c **** *
 104:ContrlSys/ctr.c **** **/
 105:ContrlSys/ctr.c **** void Target_Init()
 106:ContrlSys/ctr.c **** {
 437              		.loc 1 106 1 is_stmt 1 view -0
 438              		.cfi_startproc
 439              		@ args = 0, pretend = 0, frame = 0
 440              		@ frame_needed = 0, uses_anonymous_args = 0
 441              		.loc 1 106 1 is_stmt 0 view .LVU129
 442 0000 10B5     		push	{r4, lr}
 443              	.LCFI8:
 444              		.cfi_def_cfa_offset 8
 445              		.cfi_offset 4, -8
 446              		.cfi_offset 14, -4
 107:ContrlSys/ctr.c **** 	
 108:ContrlSys/ctr.c **** 		uint32_t i,j;
 447              		.loc 1 108 3 is_stmt 1 view .LVU130
 109:ContrlSys/ctr.c **** 	for(i=0;i<Target_Number;i++)
 448              		.loc 1 109 2 view .LVU131
 449              	.LVL20:
 450              		.loc 1 109 7 is_stmt 0 view .LVU132
 451 0002 0023     		movs	r3, #0
 452              		.loc 1 109 2 view .LVU133
 453 0004 04E0     		b	.L50
 454              	.LVL21:
 455              	.L51:
 110:ContrlSys/ctr.c **** 	{
 111:ContrlSys/ctr.c **** 		WS2812B_Buf[i]=0x000010;
 456              		.loc 1 111 3 is_stmt 1 discriminator 3 view .LVU134
 457              		.loc 1 111 17 is_stmt 0 discriminator 3 view .LVU135
 458 0006 1C4A     		ldr	r2, .L61
 459 0008 1021     		movs	r1, #16
 460 000a 42F82310 		str	r1, [r2, r3, lsl #2]
 109:ContrlSys/ctr.c **** 	for(i=0;i<Target_Number;i++)
ARM GAS  C:\Users\21945\AppData\Local\Temp\cc3xKqqk.s 			page 12


 461              		.loc 1 109 26 is_stmt 1 discriminator 3 view .LVU136
 109:ContrlSys/ctr.c **** 	for(i=0;i<Target_Number;i++)
 462              		.loc 1 109 27 is_stmt 0 discriminator 3 view .LVU137
 463 000e 0133     		adds	r3, r3, #1
 464              	.LVL22:
 465              	.L50:
 109:ContrlSys/ctr.c **** 	for(i=0;i<Target_Number;i++)
 466              		.loc 1 109 10 is_stmt 1 discriminator 1 view .LVU138
 109:ContrlSys/ctr.c **** 	for(i=0;i<Target_Number;i++)
 467              		.loc 1 109 2 is_stmt 0 discriminator 1 view .LVU139
 468 0010 1D2B     		cmp	r3, #29
 469 0012 F8D9     		bls	.L51
 112:ContrlSys/ctr.c **** 	}
 113:ContrlSys/ctr.c **** 	
 114:ContrlSys/ctr.c **** 	for(j=0;j<Target_Number;j++)
 470              		.loc 1 114 7 view .LVU140
 471 0014 0021     		movs	r1, #0
 472 0016 1EE0     		b	.L52
 473              	.LVL23:
 474              	.L53:
 115:ContrlSys/ctr.c **** 	{
 116:ContrlSys/ctr.c **** 		for(i=0;i<24;i++)
 117:ContrlSys/ctr.c **** 		{
 118:ContrlSys/ctr.c **** 			if(WS2812B_Buf[j]&(0x800000>>i)){WS2812B_Bit[j*24+i+1]=45;}  //BIT位为1 设置相应的占空比
 119:ContrlSys/ctr.c **** 			else{WS2812B_Bit[j*24+i+1]=25;}
 475              		.loc 1 119 9 is_stmt 1 view .LVU141
 476              		.loc 1 119 22 is_stmt 0 view .LVU142
 477 0018 01EB4100 		add	r0, r1, r1, lsl #1
 478 001c C200     		lsls	r2, r0, #3
 479              		.loc 1 119 25 view .LVU143
 480 001e 1A44     		add	r2, r2, r3
 481              		.loc 1 119 27 view .LVU144
 482 0020 0132     		adds	r2, r2, #1
 483              		.loc 1 119 30 view .LVU145
 484 0022 1648     		ldr	r0, .L61+4
 485 0024 1924     		movs	r4, #25
 486 0026 40F82240 		str	r4, [r0, r2, lsl #2]
 487              	.L54:
 116:ContrlSys/ctr.c **** 		{
 488              		.loc 1 116 16 is_stmt 1 discriminator 2 view .LVU146
 116:ContrlSys/ctr.c **** 		{
 489              		.loc 1 116 17 is_stmt 0 discriminator 2 view .LVU147
 490 002a 0133     		adds	r3, r3, #1
 491              	.LVL24:
 492              	.L56:
 116:ContrlSys/ctr.c **** 		{
 493              		.loc 1 116 11 is_stmt 1 discriminator 1 view .LVU148
 116:ContrlSys/ctr.c **** 		{
 494              		.loc 1 116 3 is_stmt 0 discriminator 1 view .LVU149
 495 002c 172B     		cmp	r3, #23
 496 002e 11D8     		bhi	.L59
 118:ContrlSys/ctr.c **** 			else{WS2812B_Bit[j*24+i+1]=25;}
 497              		.loc 1 118 4 is_stmt 1 view .LVU150
 118:ContrlSys/ctr.c **** 			else{WS2812B_Bit[j*24+i+1]=25;}
 498              		.loc 1 118 18 is_stmt 0 view .LVU151
 499 0030 114A     		ldr	r2, .L61
 500 0032 52F82100 		ldr	r0, [r2, r1, lsl #2]
ARM GAS  C:\Users\21945\AppData\Local\Temp\cc3xKqqk.s 			page 13


 118:ContrlSys/ctr.c **** 			else{WS2812B_Bit[j*24+i+1]=25;}
 501              		.loc 1 118 31 view .LVU152
 502 0036 4FF40002 		mov	r2, #8388608
 503 003a 1A41     		asrs	r2, r2, r3
 118:ContrlSys/ctr.c **** 			else{WS2812B_Bit[j*24+i+1]=25;}
 504              		.loc 1 118 6 view .LVU153
 505 003c 1042     		tst	r0, r2
 506 003e EBD0     		beq	.L53
 118:ContrlSys/ctr.c **** 			else{WS2812B_Bit[j*24+i+1]=25;}
 507              		.loc 1 118 37 is_stmt 1 discriminator 1 view .LVU154
 118:ContrlSys/ctr.c **** 			else{WS2812B_Bit[j*24+i+1]=25;}
 508              		.loc 1 118 50 is_stmt 0 discriminator 1 view .LVU155
 509 0040 01EB4100 		add	r0, r1, r1, lsl #1
 510 0044 C200     		lsls	r2, r0, #3
 118:ContrlSys/ctr.c **** 			else{WS2812B_Bit[j*24+i+1]=25;}
 511              		.loc 1 118 53 discriminator 1 view .LVU156
 512 0046 1A44     		add	r2, r2, r3
 118:ContrlSys/ctr.c **** 			else{WS2812B_Bit[j*24+i+1]=25;}
 513              		.loc 1 118 55 discriminator 1 view .LVU157
 514 0048 0132     		adds	r2, r2, #1
 118:ContrlSys/ctr.c **** 			else{WS2812B_Bit[j*24+i+1]=25;}
 515              		.loc 1 118 58 discriminator 1 view .LVU158
 516 004a 0C48     		ldr	r0, .L61+4
 517 004c 2D24     		movs	r4, #45
 518 004e 40F82240 		str	r4, [r0, r2, lsl #2]
 519 0052 EAE7     		b	.L54
 520              	.L59:
 114:ContrlSys/ctr.c **** 	{
 521              		.loc 1 114 26 is_stmt 1 discriminator 2 view .LVU159
 114:ContrlSys/ctr.c **** 	{
 522              		.loc 1 114 27 is_stmt 0 discriminator 2 view .LVU160
 523 0054 0131     		adds	r1, r1, #1
 524              	.LVL25:
 525              	.L52:
 114:ContrlSys/ctr.c **** 	{
 526              		.loc 1 114 10 is_stmt 1 discriminator 1 view .LVU161
 114:ContrlSys/ctr.c **** 	{
 527              		.loc 1 114 2 is_stmt 0 discriminator 1 view .LVU162
 528 0056 1D29     		cmp	r1, #29
 529 0058 01D8     		bhi	.L60
 116:ContrlSys/ctr.c **** 		{
 530              		.loc 1 116 8 view .LVU163
 531 005a 0023     		movs	r3, #0
 532              	.LVL26:
 116:ContrlSys/ctr.c **** 		{
 533              		.loc 1 116 8 view .LVU164
 534 005c E6E7     		b	.L56
 535              	.LVL27:
 536              	.L60:
 120:ContrlSys/ctr.c **** 		}
 121:ContrlSys/ctr.c **** 	}
 122:ContrlSys/ctr.c **** 
 123:ContrlSys/ctr.c **** 	HAL_TIM_PWM_Start_DMA(&htim8,TIM_CHANNEL_3,&WS2812B_Bit[0],24*Target_Number+1);
 537              		.loc 1 123 2 is_stmt 1 view .LVU165
 538 005e 40F2D123 		movw	r3, #721
 539              	.LVL28:
 540              		.loc 1 123 2 is_stmt 0 view .LVU166
ARM GAS  C:\Users\21945\AppData\Local\Temp\cc3xKqqk.s 			page 14


 541 0062 064A     		ldr	r2, .L61+4
 542 0064 0821     		movs	r1, #8
 543              	.LVL29:
 544              		.loc 1 123 2 view .LVU167
 545 0066 0648     		ldr	r0, .L61+8
 546 0068 FFF7FEFF 		bl	HAL_TIM_PWM_Start_DMA
 547              	.LVL30:
 124:ContrlSys/ctr.c **** 	HAL_Delay(30);
 548              		.loc 1 124 2 is_stmt 1 view .LVU168
 549 006c 1E20     		movs	r0, #30
 550 006e FFF7FEFF 		bl	HAL_Delay
 551              	.LVL31:
 125:ContrlSys/ctr.c **** 	Vibra_monitor();
 552              		.loc 1 125 2 view .LVU169
 553 0072 FFF7FEFF 		bl	Vibra_monitor
 554              	.LVL32:
 126:ContrlSys/ctr.c **** }
 555              		.loc 1 126 1 is_stmt 0 view .LVU170
 556 0076 10BD     		pop	{r4, pc}
 557              	.L62:
 558              		.align	2
 559              	.L61:
 560 0078 00000000 		.word	WS2812B_Buf
 561 007c 00000000 		.word	WS2812B_Bit
 562 0080 00000000 		.word	htim8
 563              		.cfi_endproc
 564              	.LFE69:
 566              		.section	.text.Rand_num,"ax",%progbits
 567              		.align	1
 568              		.global	Rand_num
 569              		.syntax unified
 570              		.thumb
 571              		.thumb_func
 573              	Rand_num:
 574              	.LFB71:
 127:ContrlSys/ctr.c **** 
 128:ContrlSys/ctr.c **** /*
 129:ContrlSys/ctr.c **** *扇叶控制
 130:ContrlSys/ctr.c **** *
 131:ContrlSys/ctr.c **** *0-off,1-on,2-flow
 132:ContrlSys/ctr.c **** *s:代表前进的步数,RGB：扇叶的颜色
 133:ContrlSys/ctr.c **** *
 134:ContrlSys/ctr.c **** **/
 135:ContrlSys/ctr.c **** void Ctr_Fan(int s,int RGB)
 136:ContrlSys/ctr.c **** {
 137:ContrlSys/ctr.c **** 	i_count = 0;
 138:ContrlSys/ctr.c **** 	//模式检测
 139:ContrlSys/ctr.c **** 	Vibra_Detection();
 140:ContrlSys/ctr.c **** 	
 141:ContrlSys/ctr.c **** 	for(uint8_t j=0;j<5;j++)
 142:ContrlSys/ctr.c **** 	{
 143:ContrlSys/ctr.c **** 		if(ES.fan[j].mode == 1)
 144:ContrlSys/ctr.c **** 		{
 145:ContrlSys/ctr.c **** 			i_count = i_count + 1;
 146:ContrlSys/ctr.c **** 		}
 147:ContrlSys/ctr.c **** 	}
 148:ContrlSys/ctr.c **** 	if(i_count==2){
ARM GAS  C:\Users\21945\AppData\Local\Temp\cc3xKqqk.s 			page 15


 149:ContrlSys/ctr.c **** 			ES.fan[5].mode = 2;
 150:ContrlSys/ctr.c **** 	}
 151:ContrlSys/ctr.c **** 	if(i_count==3){
 152:ContrlSys/ctr.c **** 			ES.fan[5].mode = 1;
 153:ContrlSys/ctr.c **** 	}
 154:ContrlSys/ctr.c **** 	//为了解决两片扇叶问题流水卡死的问题，DMA发送没问题-》看示波器
 155:ContrlSys/ctr.c **** 	
 156:ContrlSys/ctr.c **** 	int i;
 157:ContrlSys/ctr.c **** 	for(i=0;i<6;i++){
 158:ContrlSys/ctr.c **** 		ALL_ClearBuf();
 159:ContrlSys/ctr.c **** 		ALL_UpdateBuf();
 160:ContrlSys/ctr.c **** 		switch(ES.fan[i].mode)
 161:ContrlSys/ctr.c **** 		{
 162:ContrlSys/ctr.c **** 			case 0:
 163:ContrlSys/ctr.c **** 				Light_off();
 164:ContrlSys/ctr.c **** 				break;
 165:ContrlSys/ctr.c **** 			case 1:
 166:ContrlSys/ctr.c **** 				Light_on(RGB);
 167:ContrlSys/ctr.c **** 				LINE_Init();
 168:ContrlSys/ctr.c **** 				LED_YUAN_Init();
 169:ContrlSys/ctr.c **** 				break;
 170:ContrlSys/ctr.c **** 			case 2:
 171:ContrlSys/ctr.c **** 				//流水灯3级
 172:ContrlSys/ctr.c **** 				if(Flow_flag == 0){
 173:ContrlSys/ctr.c **** 					Light_flow(s,RGB);
 174:ContrlSys/ctr.c **** 					LED_YUAN_Init();
 175:ContrlSys/ctr.c **** 					Flow_flag = 1;
 176:ContrlSys/ctr.c **** 				}else if(Flow_flag == 1){
 177:ContrlSys/ctr.c **** 					Light_flow2(s,RGB);
 178:ContrlSys/ctr.c **** 					LED_YUAN_Init();
 179:ContrlSys/ctr.c **** 					Flow_flag = 2;
 180:ContrlSys/ctr.c **** 				}else if(Flow_flag == 2){
 181:ContrlSys/ctr.c **** 					Light_flow3(s,RGB);
 182:ContrlSys/ctr.c **** 							LED_YUAN_Init();
 183:ContrlSys/ctr.c **** 					Flow_flag = 0;
 184:ContrlSys/ctr.c **** 				}
 185:ContrlSys/ctr.c **** 				break;
 186:ContrlSys/ctr.c **** 		}
 187:ContrlSys/ctr.c **** 		
 188:ContrlSys/ctr.c **** 		if(i==0){
 189:ContrlSys/ctr.c **** 		HAL_TIM_PWM_Start_DMA(&htim4,TIM_CHANNEL_1,&WS2812B_Bit[0],24*All_Number+1);
 190:ContrlSys/ctr.c **** 		HAL_Delay(30);
 191:ContrlSys/ctr.c **** 		Vibra_monitor();
 192:ContrlSys/ctr.c **** 		}
 193:ContrlSys/ctr.c **** 		if(i==1){
 194:ContrlSys/ctr.c **** 		HAL_TIM_PWM_Start_DMA(&htim2,TIM_CHANNEL_1,&WS2812B_Bit[0],24*All_Number+1);
 195:ContrlSys/ctr.c **** 		HAL_Delay(30);
 196:ContrlSys/ctr.c **** 		Vibra_monitor();
 197:ContrlSys/ctr.c **** 		}
 198:ContrlSys/ctr.c **** 		if(i==2){
 199:ContrlSys/ctr.c **** 		HAL_TIM_PWM_Start_DMA(&htim5,TIM_CHANNEL_1,&WS2812B_Bit[0],24*All_Number+1);
 200:ContrlSys/ctr.c **** 		HAL_Delay(30);
 201:ContrlSys/ctr.c **** 		Vibra_monitor();
 202:ContrlSys/ctr.c **** 		}
 203:ContrlSys/ctr.c **** 		if(i==3){
 204:ContrlSys/ctr.c **** 		HAL_TIM_PWM_Start_DMA(&htim3,TIM_CHANNEL_4,&WS2812B_Bit[0],24*All_Number+1);
 205:ContrlSys/ctr.c **** 		HAL_Delay(30);
ARM GAS  C:\Users\21945\AppData\Local\Temp\cc3xKqqk.s 			page 16


 206:ContrlSys/ctr.c **** 		Vibra_monitor();
 207:ContrlSys/ctr.c **** 		}
 208:ContrlSys/ctr.c **** 		if(i==4){
 209:ContrlSys/ctr.c **** 		HAL_TIM_PWM_Start_DMA(&htim1,TIM_CHANNEL_1,&WS2812B_Bit[0],24*All_Number+1);
 210:ContrlSys/ctr.c **** 		HAL_Delay(30);
 211:ContrlSys/ctr.c **** 		Vibra_monitor();
 212:ContrlSys/ctr.c **** 		}
 213:ContrlSys/ctr.c **** 		if(i==5){
 214:ContrlSys/ctr.c **** 		HAL_TIM_PWM_Start_DMA(&htim8,TIM_CHANNEL_3,&WS2812B_Bit[0],24*All_Number+1);
 215:ContrlSys/ctr.c **** 		HAL_Delay(30);
 216:ContrlSys/ctr.c **** 		Vibra_monitor();
 217:ContrlSys/ctr.c **** 		}
 218:ContrlSys/ctr.c **** 	}
 219:ContrlSys/ctr.c **** 	
 220:ContrlSys/ctr.c **** }
 221:ContrlSys/ctr.c **** 
 222:ContrlSys/ctr.c **** /*
 223:ContrlSys/ctr.c **** *随机数获取
 224:ContrlSys/ctr.c **** *
 225:ContrlSys/ctr.c **** **/
 226:ContrlSys/ctr.c **** int Rand_num()
 227:ContrlSys/ctr.c **** {
 575              		.loc 1 227 1 is_stmt 1 view -0
 576              		.cfi_startproc
 577              		@ args = 0, pretend = 0, frame = 0
 578              		@ frame_needed = 0, uses_anonymous_args = 0
 579 0000 08B5     		push	{r3, lr}
 580              	.LCFI9:
 581              		.cfi_def_cfa_offset 8
 582              		.cfi_offset 3, -8
 583              		.cfi_offset 14, -4
 228:ContrlSys/ctr.c **** 	int i;
 584              		.loc 1 228 2 view .LVU172
 229:ContrlSys/ctr.c **** 	i = rand()%4;
 585              		.loc 1 229 2 view .LVU173
 586              		.loc 1 229 6 is_stmt 0 view .LVU174
 587 0002 FFF7FEFF 		bl	rand
 588              	.LVL33:
 589              		.loc 1 229 4 view .LVU175
 590 0006 4342     		rsbs	r3, r0, #0
 591 0008 00F00300 		and	r0, r0, #3
 592 000c 03F00303 		and	r3, r3, #3
 593              	.LVL34:
 230:ContrlSys/ctr.c **** 	return i;
 594              		.loc 1 230 2 is_stmt 1 view .LVU176
 231:ContrlSys/ctr.c **** }
 595              		.loc 1 231 1 is_stmt 0 view .LVU177
 596 0010 58BF     		it	pl
 597 0012 5842     		rsbpl	r0, r3, #0
 598              	.LVL35:
 599              		.loc 1 231 1 view .LVU178
 600 0014 08BD     		pop	{r3, pc}
 601              		.cfi_endproc
 602              	.LFE71:
 604              		.section	.text.Fan_Logic,"ax",%progbits
 605              		.align	1
 606              		.global	Fan_Logic
ARM GAS  C:\Users\21945\AppData\Local\Temp\cc3xKqqk.s 			page 17


 607              		.syntax unified
 608              		.thumb
 609              		.thumb_func
 611              	Fan_Logic:
 612              	.LFB72:
 232:ContrlSys/ctr.c **** 
 233:ContrlSys/ctr.c **** 
 234:ContrlSys/ctr.c **** 
 235:ContrlSys/ctr.c **** /*
 236:ContrlSys/ctr.c **** *扇叶工作逻辑
 237:ContrlSys/ctr.c **** *
 238:ContrlSys/ctr.c **** *注意：没有错误检查
 239:ContrlSys/ctr.c **** *注意：没有记录灯板状态
 240:ContrlSys/ctr.c **** *
 241:ContrlSys/ctr.c **** *灯板击发点亮顺序: 0 1 4 2 5
 242:ContrlSys/ctr.c **** *
 243:ContrlSys/ctr.c **** **/
 244:ContrlSys/ctr.c **** void Fan_Logic()
 245:ContrlSys/ctr.c **** {
 613              		.loc 1 245 1 is_stmt 1 view -0
 614              		.cfi_startproc
 615              		@ args = 0, pretend = 0, frame = 0
 616              		@ frame_needed = 0, uses_anonymous_args = 0
 617 0000 10B5     		push	{r4, lr}
 618              	.LCFI10:
 619              		.cfi_def_cfa_offset 8
 620              		.cfi_offset 4, -8
 621              		.cfi_offset 14, -4
 622 0002 0023     		movs	r3, #0
 246:ContrlSys/ctr.c **** 		ES.HitErrFlag = 0;
 623              		.loc 1 246 3 view .LVU180
 624              		.loc 1 246 17 is_stmt 0 view .LVU181
 625 0004 9D4C     		ldr	r4, .L97
 626 0006 84F86630 		strb	r3, [r4, #102]
 247:ContrlSys/ctr.c **** 		static uint8_t logic_check = 0;//改正逻辑错误
 627              		.loc 1 247 3 is_stmt 1 view .LVU182
 248:ContrlSys/ctr.c **** 		static uint8_t logic_rand = 0;
 628              		.loc 1 248 3 view .LVU183
 249:ContrlSys/ctr.c **** 		uint8_t i0=0,i1=1,i2=4,i3=2,i4=3;
 629              		.loc 1 249 3 view .LVU184
 630              	.LVL36:
 250:ContrlSys/ctr.c **** 		
 251:ContrlSys/ctr.c **** 	
 252:ContrlSys/ctr.c **** 		switch(ES.state)
 631              		.loc 1 252 3 view .LVU185
 632              		.loc 1 252 12 is_stmt 0 view .LVU186
 633 000a 94F864C0 		ldrb	ip, [r4, #100]	@ zero_extendqisi2
 634              		.loc 1 252 3 view .LVU187
 635 000e BCF1050F 		cmp	ip, #5
 636 0012 21D8     		bhi	.L65
 637 0014 DFE81CF0 		tbh	[pc, ip, lsl #1]
 638              	.L68:
 639 0018 0C00     		.2byte	(.L73-.L68)/2
 640 001a 2100     		.2byte	(.L72-.L68)/2
 641 001c 5700     		.2byte	(.L71-.L68)/2
 642 001e 9000     		.2byte	(.L70-.L68)/2
 643 0020 C900     		.2byte	(.L69-.L68)/2
ARM GAS  C:\Users\21945\AppData\Local\Temp\cc3xKqqk.s 			page 18


 644 0022 0301     		.2byte	(.L67-.L68)/2
 645              	.LVL37:
 646              		.p2align 1
 647              	.L74:
 648              	.LBB5:
 253:ContrlSys/ctr.c **** 		{
 254:ContrlSys/ctr.c **** 			case wait_activate:
 255:ContrlSys/ctr.c **** 			//	if(ES.last_state != wait_activate|| HAL_GetTick() - ES.timeStamp > 2500)
 256:ContrlSys/ctr.c **** //					if(ES.last_state != wait_activate)
 257:ContrlSys/ctr.c **** //				{
 258:ContrlSys/ctr.c **** //					for(uint8_t i=0;i < 5;i++)
 259:ContrlSys/ctr.c **** //					{
 260:ContrlSys/ctr.c **** //						ES.fan[i].last_mode = ES.fan[i].mode;//记录上个模式
 261:ContrlSys/ctr.c **** //						//把所有的灯板清零
 262:ContrlSys/ctr.c **** //						ES.fan[i].mode = OFF;
 263:ContrlSys/ctr.c **** //					}
 264:ContrlSys/ctr.c **** 					for(uint8_t i; i<5; i++)
 265:ContrlSys/ctr.c **** 					{
 266:ContrlSys/ctr.c **** 						ES.fan[i].mode = OFF;
 649              		.loc 1 266 7 is_stmt 1 discriminator 2 view .LVU188
 650              		.loc 1 266 22 is_stmt 0 discriminator 2 view .LVU189
 651 0024 1A01     		lsls	r2, r3, #4
 652 0026 9549     		ldr	r1, .L97
 653 0028 0020     		movs	r0, #0
 654 002a 8850     		str	r0, [r1, r2]
 264:ContrlSys/ctr.c **** 					{
 655              		.loc 1 264 26 is_stmt 1 discriminator 2 view .LVU190
 264:ContrlSys/ctr.c **** 					{
 656              		.loc 1 264 27 is_stmt 0 discriminator 2 view .LVU191
 657 002c 0133     		adds	r3, r3, #1
 658              	.LVL38:
 264:ContrlSys/ctr.c **** 					{
 659              		.loc 1 264 27 discriminator 2 view .LVU192
 660 002e DBB2     		uxtb	r3, r3
 661              	.LVL39:
 662              	.L73:
 264:ContrlSys/ctr.c **** 					{
 663              		.loc 1 264 21 is_stmt 1 discriminator 1 view .LVU193
 264:ContrlSys/ctr.c **** 					{
 664              		.loc 1 264 6 is_stmt 0 discriminator 1 view .LVU194
 665 0030 042B     		cmp	r3, #4
 666 0032 F7D9     		bls	.L74
 667              	.LBE5:
 267:ContrlSys/ctr.c **** 					}
 268:ContrlSys/ctr.c **** //				ES.fan[ES.Need_hit].mode = OFF;
 269:ContrlSys/ctr.c **** 					ES.timeStamp = HAL_GetTick();//记录时间
 668              		.loc 1 269 6 is_stmt 1 view .LVU195
 669              		.loc 1 269 21 is_stmt 0 view .LVU196
 670 0034 FFF7FEFF 		bl	HAL_GetTick
 671              	.LVL40:
 672              		.loc 1 269 19 view .LVU197
 673 0038 904B     		ldr	r3, .L97
 674 003a 1866     		str	r0, [r3, #96]
 270:ContrlSys/ctr.c **** 					ES.last_state = wait_activate;//更新状态
 675              		.loc 1 270 6 is_stmt 1 view .LVU198
 676              		.loc 1 270 20 is_stmt 0 view .LVU199
 677 003c 0022     		movs	r2, #0
ARM GAS  C:\Users\21945\AppData\Local\Temp\cc3xKqqk.s 			page 19


 678 003e 83F86520 		strb	r2, [r3, #101]
 271:ContrlSys/ctr.c **** 					ES.HitErrFlag = 0;
 679              		.loc 1 271 6 is_stmt 1 view .LVU200
 680              		.loc 1 271 20 is_stmt 0 view .LVU201
 681 0042 83F86620 		strb	r2, [r3, #102]
 272:ContrlSys/ctr.c **** 					
 273:ContrlSys/ctr.c **** 	//				jilu0:	
 274:ContrlSys/ctr.c **** 						ES.Need_hit = i0;//目标击打是一个0~4的数
 682              		.loc 1 274 7 is_stmt 1 view .LVU202
 683              		.loc 1 274 19 is_stmt 0 view .LVU203
 684 0046 83F86720 		strb	r2, [r3, #103]
 275:ContrlSys/ctr.c **** //						if(ES.Need_hit== ES.Need_hit_last){
 276:ContrlSys/ctr.c **** //							goto jilu0;//防止随机数重复
 277:ContrlSys/ctr.c **** //						}
 278:ContrlSys/ctr.c **** 					ES.Need_hit_last = ES.Need_hit;
 685              		.loc 1 278 6 is_stmt 1 view .LVU204
 686              		.loc 1 278 23 is_stmt 0 view .LVU205
 687 004a 83F86820 		strb	r2, [r3, #104]
 279:ContrlSys/ctr.c **** 					ES.StateSwitch_flag = 1;//待分析此指令的作用
 688              		.loc 1 279 6 is_stmt 1 view .LVU206
 689              		.loc 1 279 26 is_stmt 0 view .LVU207
 690 004e 0122     		movs	r2, #1
 691 0050 83F86920 		strb	r2, [r3, #105]
 280:ContrlSys/ctr.c **** 					ES.fan[ES.Need_hit].mode = Flow;//确认一个灯板
 692              		.loc 1 280 6 is_stmt 1 view .LVU208
 693              		.loc 1 280 31 is_stmt 0 view .LVU209
 694 0054 0222     		movs	r2, #2
 695 0056 1A60     		str	r2, [r3]
 281:ContrlSys/ctr.c **** 		//		}
 282:ContrlSys/ctr.c **** 			
 283:ContrlSys/ctr.c **** 				break;
 696              		.loc 1 283 5 is_stmt 1 view .LVU210
 697              	.L65:
 284:ContrlSys/ctr.c **** 				
 285:ContrlSys/ctr.c **** 			case activate_1: //激活灯板被击中
 286:ContrlSys/ctr.c **** 				if(ES.fan[ES.Need_hit].mode != ON && logic_check == 0)
 287:ContrlSys/ctr.c **** 				{
 288:ContrlSys/ctr.c **** 					ES.HitErrFlag = 1;
 289:ContrlSys/ctr.c **** 				}
 290:ContrlSys/ctr.c **** 				logic_check = 1;//代表进来了一次
 291:ContrlSys/ctr.c **** 				
 292:ContrlSys/ctr.c **** 				if(ES.last_state != activate_1 )
 293:ContrlSys/ctr.c **** 				{
 294:ContrlSys/ctr.c **** 					for(uint8_t i = 0;i<5;i++)
 295:ContrlSys/ctr.c **** 					{
 296:ContrlSys/ctr.c **** 						ES.fan[i].last_mode = ES.fan[i].mode;
 297:ContrlSys/ctr.c **** 					}
 298:ContrlSys/ctr.c **** 				//	ES.fan[ES.Need_hit].mode = ON;//已经有震动检查了，此处应该无用
 299:ContrlSys/ctr.c **** 					ES.timeStamp = HAL_GetTick();
 300:ContrlSys/ctr.c **** 					ES.Alread_hit[0] = ES.Need_hit;//记录被击中的点
 301:ContrlSys/ctr.c **** 					ES.last_state = activate_1;
 302:ContrlSys/ctr.c **** 					
 303:ContrlSys/ctr.c **** 					//jilu1:
 304:ContrlSys/ctr.c **** 						ES.Need_hit = i1;//更新打击点
 305:ContrlSys/ctr.c **** //						if(ES.Need_hit == ES.Alread_hit[0] || ES.Need_hit == ES.Need_hit_last){//保证不重复，不打上
 306:ContrlSys/ctr.c **** //							goto jilu1;
 307:ContrlSys/ctr.c **** //						}
ARM GAS  C:\Users\21945\AppData\Local\Temp\cc3xKqqk.s 			page 20


 308:ContrlSys/ctr.c **** 					ES.Need_hit_last = ES.Need_hit;
 309:ContrlSys/ctr.c **** 					ES.StateSwitch_flag = 1;
 310:ContrlSys/ctr.c **** 					ES.fan[ES.Need_hit].mode = Flow;//确认一个灯板
 311:ContrlSys/ctr.c **** 				}
 312:ContrlSys/ctr.c **** 				break;
 313:ContrlSys/ctr.c **** 			
 314:ContrlSys/ctr.c **** 			case activate_2:
 315:ContrlSys/ctr.c **** 				if(ES.fan[ES.Need_hit].mode != ON && logic_check == 1)
 316:ContrlSys/ctr.c **** 				{
 317:ContrlSys/ctr.c **** 					ES.HitErrFlag = 1;
 318:ContrlSys/ctr.c **** 				}
 319:ContrlSys/ctr.c **** 				logic_check = 2;
 320:ContrlSys/ctr.c **** 				
 321:ContrlSys/ctr.c **** 				if(ES.last_state != activate_2)
 322:ContrlSys/ctr.c **** 				{
 323:ContrlSys/ctr.c **** 					for(uint8_t i;i<5;i++)
 324:ContrlSys/ctr.c **** 					{
 325:ContrlSys/ctr.c **** 						ES.fan[i].last_mode = ES.fan[i].mode;
 326:ContrlSys/ctr.c **** 					}
 327:ContrlSys/ctr.c **** 				//	ES.fan[ES.Need_hit].mode = ON;
 328:ContrlSys/ctr.c **** 					ES.timeStamp = HAL_GetTick();
 329:ContrlSys/ctr.c **** 					ES.Alread_hit[1] = ES.Need_hit;
 330:ContrlSys/ctr.c **** 					ES.last_state = activate_2;
 331:ContrlSys/ctr.c **** 					
 332:ContrlSys/ctr.c **** 					//jilu2:
 333:ContrlSys/ctr.c **** 						ES.Need_hit = i2;
 334:ContrlSys/ctr.c **** //						if(ES.Need_hit == ES.Alread_hit[1] || ES.Need_hit == ES.Alread_hit[0] || ES.Need_hit == ES.
 335:ContrlSys/ctr.c **** //							goto jilu2;
 336:ContrlSys/ctr.c **** //						}
 337:ContrlSys/ctr.c **** 					ES.Need_hit_last = ES.Need_hit;
 338:ContrlSys/ctr.c **** 					ES.StateSwitch_flag = 1;
 339:ContrlSys/ctr.c **** 					ES.fan[ES.Need_hit].mode = Flow;
 340:ContrlSys/ctr.c **** 				}
 341:ContrlSys/ctr.c **** 				break;
 342:ContrlSys/ctr.c **** 				
 343:ContrlSys/ctr.c **** 			case activate_3://修改处
 344:ContrlSys/ctr.c **** 				if(ES.fan[ES.Need_hit].mode != ON && logic_check == 2)
 345:ContrlSys/ctr.c **** 				{
 346:ContrlSys/ctr.c **** 					ES.HitErrFlag = 1;
 347:ContrlSys/ctr.c **** 				}
 348:ContrlSys/ctr.c **** 				logic_check = 3;
 349:ContrlSys/ctr.c **** 				
 350:ContrlSys/ctr.c **** 				if(ES.last_state != activate_3)//修改处
 351:ContrlSys/ctr.c **** 				{
 352:ContrlSys/ctr.c **** 					for(uint8_t i;i<5;i++)
 353:ContrlSys/ctr.c **** 					{
 354:ContrlSys/ctr.c **** 						ES.fan[i].last_mode = ES.fan[i].mode;
 355:ContrlSys/ctr.c **** 					}
 356:ContrlSys/ctr.c **** 				//	ES.fan[ES.Need_hit].mode = ON;
 357:ContrlSys/ctr.c **** 					ES.timeStamp = HAL_GetTick();
 358:ContrlSys/ctr.c **** 					ES.Alread_hit[2] = ES.Need_hit;//修改处
 359:ContrlSys/ctr.c **** 					ES.last_state = activate_3;//修改处
 360:ContrlSys/ctr.c **** 					
 361:ContrlSys/ctr.c **** 					//jilu3://修改处
 362:ContrlSys/ctr.c **** 						ES.Need_hit = i3;
 363:ContrlSys/ctr.c **** //						if(ES.Need_hit == ES.Alread_hit[2] || ES.Need_hit == ES.Alread_hit[1] || ES.Need_hit == ES.
 364:ContrlSys/ctr.c **** //							goto jilu3;
ARM GAS  C:\Users\21945\AppData\Local\Temp\cc3xKqqk.s 			page 21


 365:ContrlSys/ctr.c **** //						}
 366:ContrlSys/ctr.c **** 					ES.Need_hit_last = ES.Need_hit;
 367:ContrlSys/ctr.c **** 					ES.StateSwitch_flag = 1;
 368:ContrlSys/ctr.c **** 					ES.fan[ES.Need_hit].mode = Flow;
 369:ContrlSys/ctr.c **** 				}
 370:ContrlSys/ctr.c **** 				break;
 371:ContrlSys/ctr.c **** 				
 372:ContrlSys/ctr.c **** 			case activate_4://修改处
 373:ContrlSys/ctr.c **** 				if(ES.fan[ES.Need_hit].mode != ON && logic_check == 3)
 374:ContrlSys/ctr.c **** 				{
 375:ContrlSys/ctr.c **** 					ES.HitErrFlag = 1;
 376:ContrlSys/ctr.c **** 				}
 377:ContrlSys/ctr.c **** 				logic_check = 4;
 378:ContrlSys/ctr.c **** 				
 379:ContrlSys/ctr.c **** 				if(ES.last_state != activate_4)//修改处
 380:ContrlSys/ctr.c **** 				{
 381:ContrlSys/ctr.c **** 					for(uint8_t i;i<5;i++)
 382:ContrlSys/ctr.c **** 					{
 383:ContrlSys/ctr.c **** 						ES.fan[i].last_mode = ES.fan[i].mode;
 384:ContrlSys/ctr.c **** 					}
 385:ContrlSys/ctr.c **** 			//		ES.fan[ES.Need_hit].mode = ON;
 386:ContrlSys/ctr.c **** 					ES.timeStamp = HAL_GetTick();
 387:ContrlSys/ctr.c **** 					ES.Alread_hit[3] = ES.Need_hit;//修改处
 388:ContrlSys/ctr.c **** 					ES.last_state = activate_4;//修改处
 389:ContrlSys/ctr.c **** 					
 390:ContrlSys/ctr.c **** 			//		jilu4://修改处
 391:ContrlSys/ctr.c **** 						ES.Need_hit = i4;
 392:ContrlSys/ctr.c **** //						if(ES.Need_hit == ES.Alread_hit[3] || ES.Need_hit == ES.Alread_hit[2] || ES.Need_hit == ES.
 393:ContrlSys/ctr.c **** //							goto jilu4;
 394:ContrlSys/ctr.c **** //						}
 395:ContrlSys/ctr.c **** 					ES.Need_hit_last = ES.Need_hit;
 396:ContrlSys/ctr.c **** 					ES.StateSwitch_flag = 1;
 397:ContrlSys/ctr.c **** 					ES.fan[ES.Need_hit].mode = Flow;
 398:ContrlSys/ctr.c **** 				}
 399:ContrlSys/ctr.c **** 				break;
 400:ContrlSys/ctr.c **** 				
 401:ContrlSys/ctr.c **** 			case success_activate:
 402:ContrlSys/ctr.c **** 				if(ES.fan[ES.Need_hit].mode != ON && logic_check == 4)
 403:ContrlSys/ctr.c **** 				{
 404:ContrlSys/ctr.c **** 					ES.HitErrFlag = 1;
 405:ContrlSys/ctr.c **** 				}
 406:ContrlSys/ctr.c **** 				logic_check = 5;
 407:ContrlSys/ctr.c **** 				
 408:ContrlSys/ctr.c **** 				if(ES.last_state != success_activate)
 409:ContrlSys/ctr.c **** 				{
 410:ContrlSys/ctr.c **** 					for(uint8_t i=0;i<5;i++){
 411:ContrlSys/ctr.c **** 						ES.fan[i].last_mode = ES.fan[i].mode;
 412:ContrlSys/ctr.c **** 					}
 413:ContrlSys/ctr.c **** 			//		ES.fan[ES.Need_hit].mode = ON;
 414:ContrlSys/ctr.c **** 					ES.timeStamp = HAL_GetTick();//时间检测在上面
 415:ContrlSys/ctr.c **** 					ES.Alread_hit[4] = ES.Need_hit;
 416:ContrlSys/ctr.c **** //					ES.last_state = success_activate;
 417:ContrlSys/ctr.c **** //					ES.StateSwitch_flag = 1;
 418:ContrlSys/ctr.c **** 				}
 419:ContrlSys/ctr.c **** 				break;
 420:ContrlSys/ctr.c **** 		}
 421:ContrlSys/ctr.c **** }
ARM GAS  C:\Users\21945\AppData\Local\Temp\cc3xKqqk.s 			page 22


 698              		.loc 1 421 1 is_stmt 0 view .LVU211
 699 0058 10BD     		pop	{r4, pc}
 700              	.L72:
 286:ContrlSys/ctr.c **** 				{
 701              		.loc 1 286 5 is_stmt 1 view .LVU212
 286:ContrlSys/ctr.c **** 				{
 702              		.loc 1 286 17 is_stmt 0 view .LVU213
 703 005a 884A     		ldr	r2, .L97
 704 005c 92F86730 		ldrb	r3, [r2, #103]	@ zero_extendqisi2
 286:ContrlSys/ctr.c **** 				{
 705              		.loc 1 286 27 view .LVU214
 706 0060 1B01     		lsls	r3, r3, #4
 707 0062 D358     		ldr	r3, [r2, r3]
 286:ContrlSys/ctr.c **** 				{
 708              		.loc 1 286 7 view .LVU215
 709 0064 012B     		cmp	r3, #1
 710 0066 06D0     		beq	.L75
 286:ContrlSys/ctr.c **** 				{
 711              		.loc 1 286 54 discriminator 1 view .LVU216
 712 0068 854B     		ldr	r3, .L97+4
 713 006a 1B78     		ldrb	r3, [r3]	@ zero_extendqisi2
 286:ContrlSys/ctr.c **** 				{
 714              		.loc 1 286 39 discriminator 1 view .LVU217
 715 006c 1BB9     		cbnz	r3, .L75
 288:ContrlSys/ctr.c **** 				}
 716              		.loc 1 288 6 is_stmt 1 view .LVU218
 288:ContrlSys/ctr.c **** 				}
 717              		.loc 1 288 20 is_stmt 0 view .LVU219
 718 006e 1346     		mov	r3, r2
 719 0070 0122     		movs	r2, #1
 720 0072 83F86620 		strb	r2, [r3, #102]
 721              	.L75:
 290:ContrlSys/ctr.c **** 				
 722              		.loc 1 290 5 is_stmt 1 view .LVU220
 290:ContrlSys/ctr.c **** 				
 723              		.loc 1 290 17 is_stmt 0 view .LVU221
 724 0076 824B     		ldr	r3, .L97+4
 725 0078 0122     		movs	r2, #1
 726 007a 1A70     		strb	r2, [r3]
 292:ContrlSys/ctr.c **** 				{
 727              		.loc 1 292 5 is_stmt 1 view .LVU222
 292:ContrlSys/ctr.c **** 				{
 728              		.loc 1 292 10 is_stmt 0 view .LVU223
 729 007c 7F4B     		ldr	r3, .L97
 730 007e 93F86530 		ldrb	r3, [r3, #101]	@ zero_extendqisi2
 292:ContrlSys/ctr.c **** 				{
 731              		.loc 1 292 7 view .LVU224
 732 0082 9342     		cmp	r3, r2
 733 0084 E8D0     		beq	.L65
 734              	.LBB6:
 294:ContrlSys/ctr.c **** 					{
 735              		.loc 1 294 18 view .LVU225
 736 0086 0023     		movs	r3, #0
 737 0088 07E0     		b	.L76
 738              	.LVL41:
 739              	.L77:
 296:ContrlSys/ctr.c **** 					}
ARM GAS  C:\Users\21945\AppData\Local\Temp\cc3xKqqk.s 			page 23


 740              		.loc 1 296 7 is_stmt 1 discriminator 3 view .LVU226
 296:ContrlSys/ctr.c **** 					}
 741              		.loc 1 296 38 is_stmt 0 discriminator 3 view .LVU227
 742 008a 7C4A     		ldr	r2, .L97
 743 008c 1801     		lsls	r0, r3, #4
 744 008e 02EB0311 		add	r1, r2, r3, lsl #4
 745 0092 1258     		ldr	r2, [r2, r0]
 296:ContrlSys/ctr.c **** 					}
 746              		.loc 1 296 27 discriminator 3 view .LVU228
 747 0094 4A60     		str	r2, [r1, #4]
 294:ContrlSys/ctr.c **** 					{
 748              		.loc 1 294 28 is_stmt 1 discriminator 3 view .LVU229
 294:ContrlSys/ctr.c **** 					{
 749              		.loc 1 294 29 is_stmt 0 discriminator 3 view .LVU230
 750 0096 0133     		adds	r3, r3, #1
 751              	.LVL42:
 294:ContrlSys/ctr.c **** 					{
 752              		.loc 1 294 29 discriminator 3 view .LVU231
 753 0098 DBB2     		uxtb	r3, r3
 754              	.LVL43:
 755              	.L76:
 294:ContrlSys/ctr.c **** 					{
 756              		.loc 1 294 24 is_stmt 1 discriminator 1 view .LVU232
 294:ContrlSys/ctr.c **** 					{
 757              		.loc 1 294 6 is_stmt 0 discriminator 1 view .LVU233
 758 009a 042B     		cmp	r3, #4
 759 009c F5D9     		bls	.L77
 760              	.LBE6:
 299:ContrlSys/ctr.c **** 					ES.Alread_hit[0] = ES.Need_hit;//记录被击中的点
 761              		.loc 1 299 6 is_stmt 1 view .LVU234
 299:ContrlSys/ctr.c **** 					ES.Alread_hit[0] = ES.Need_hit;//记录被击中的点
 762              		.loc 1 299 21 is_stmt 0 view .LVU235
 763 009e FFF7FEFF 		bl	HAL_GetTick
 764              	.LVL44:
 299:ContrlSys/ctr.c **** 					ES.Alread_hit[0] = ES.Need_hit;//记录被击中的点
 765              		.loc 1 299 19 view .LVU236
 766 00a2 764B     		ldr	r3, .L97
 767 00a4 1866     		str	r0, [r3, #96]
 300:ContrlSys/ctr.c **** 					ES.last_state = activate_1;
 768              		.loc 1 300 6 is_stmt 1 view .LVU237
 300:ContrlSys/ctr.c **** 					ES.last_state = activate_1;
 769              		.loc 1 300 27 is_stmt 0 view .LVU238
 770 00a6 93F86720 		ldrb	r2, [r3, #103]	@ zero_extendqisi2
 300:ContrlSys/ctr.c **** 					ES.last_state = activate_1;
 771              		.loc 1 300 23 view .LVU239
 772 00aa 83F86A20 		strb	r2, [r3, #106]
 301:ContrlSys/ctr.c **** 					
 773              		.loc 1 301 6 is_stmt 1 view .LVU240
 301:ContrlSys/ctr.c **** 					
 774              		.loc 1 301 20 is_stmt 0 view .LVU241
 775 00ae 0122     		movs	r2, #1
 776 00b0 83F86520 		strb	r2, [r3, #101]
 304:ContrlSys/ctr.c **** //						if(ES.Need_hit == ES.Alread_hit[0] || ES.Need_hit == ES.Need_hit_last){//保证不重复，不打上
 777              		.loc 1 304 7 is_stmt 1 view .LVU242
 304:ContrlSys/ctr.c **** //						if(ES.Need_hit == ES.Alread_hit[0] || ES.Need_hit == ES.Need_hit_last){//保证不重复，不打上
 778              		.loc 1 304 19 is_stmt 0 view .LVU243
 779 00b4 83F86720 		strb	r2, [r3, #103]
ARM GAS  C:\Users\21945\AppData\Local\Temp\cc3xKqqk.s 			page 24


 308:ContrlSys/ctr.c **** 					ES.StateSwitch_flag = 1;
 780              		.loc 1 308 6 is_stmt 1 view .LVU244
 308:ContrlSys/ctr.c **** 					ES.StateSwitch_flag = 1;
 781              		.loc 1 308 23 is_stmt 0 view .LVU245
 782 00b8 83F86820 		strb	r2, [r3, #104]
 309:ContrlSys/ctr.c **** 					ES.fan[ES.Need_hit].mode = Flow;//确认一个灯板
 783              		.loc 1 309 6 is_stmt 1 view .LVU246
 309:ContrlSys/ctr.c **** 					ES.fan[ES.Need_hit].mode = Flow;//确认一个灯板
 784              		.loc 1 309 26 is_stmt 0 view .LVU247
 785 00bc 83F86920 		strb	r2, [r3, #105]
 310:ContrlSys/ctr.c **** 				}
 786              		.loc 1 310 6 is_stmt 1 view .LVU248
 310:ContrlSys/ctr.c **** 				}
 787              		.loc 1 310 31 is_stmt 0 view .LVU249
 788 00c0 0222     		movs	r2, #2
 789 00c2 1A61     		str	r2, [r3, #16]
 790 00c4 C8E7     		b	.L65
 791              	.L71:
 310:ContrlSys/ctr.c **** 				}
 792              		.loc 1 310 31 view .LVU250
 793 00c6 1846     		mov	r0, r3
 315:ContrlSys/ctr.c **** 				{
 794              		.loc 1 315 5 is_stmt 1 view .LVU251
 315:ContrlSys/ctr.c **** 				{
 795              		.loc 1 315 17 is_stmt 0 view .LVU252
 796 00c8 6C4A     		ldr	r2, .L97
 797 00ca 92F86730 		ldrb	r3, [r2, #103]	@ zero_extendqisi2
 315:ContrlSys/ctr.c **** 				{
 798              		.loc 1 315 27 view .LVU253
 799 00ce 1B01     		lsls	r3, r3, #4
 800 00d0 D358     		ldr	r3, [r2, r3]
 315:ContrlSys/ctr.c **** 				{
 801              		.loc 1 315 7 view .LVU254
 802 00d2 012B     		cmp	r3, #1
 803 00d4 03D0     		beq	.L78
 315:ContrlSys/ctr.c **** 				{
 804              		.loc 1 315 54 discriminator 1 view .LVU255
 805 00d6 6A4B     		ldr	r3, .L97+4
 806 00d8 1B78     		ldrb	r3, [r3]	@ zero_extendqisi2
 315:ContrlSys/ctr.c **** 				{
 807              		.loc 1 315 39 discriminator 1 view .LVU256
 808 00da 012B     		cmp	r3, #1
 809 00dc 08D0     		beq	.L93
 810              	.L78:
 319:ContrlSys/ctr.c **** 				
 811              		.loc 1 319 5 is_stmt 1 view .LVU257
 319:ContrlSys/ctr.c **** 				
 812              		.loc 1 319 17 is_stmt 0 view .LVU258
 813 00de 684B     		ldr	r3, .L97+4
 814 00e0 0222     		movs	r2, #2
 815 00e2 1A70     		strb	r2, [r3]
 321:ContrlSys/ctr.c **** 				{
 816              		.loc 1 321 5 is_stmt 1 view .LVU259
 321:ContrlSys/ctr.c **** 				{
 817              		.loc 1 321 10 is_stmt 0 view .LVU260
 818 00e4 654B     		ldr	r3, .L97
 819 00e6 93F86530 		ldrb	r3, [r3, #101]	@ zero_extendqisi2
ARM GAS  C:\Users\21945\AppData\Local\Temp\cc3xKqqk.s 			page 25


 321:ContrlSys/ctr.c **** 				{
 820              		.loc 1 321 7 view .LVU261
 821 00ea 9342     		cmp	r3, r2
 822 00ec 0DD1     		bne	.L79
 823 00ee B3E7     		b	.L65
 824              	.L93:
 317:ContrlSys/ctr.c **** 				}
 825              		.loc 1 317 6 is_stmt 1 view .LVU262
 317:ContrlSys/ctr.c **** 				}
 826              		.loc 1 317 20 is_stmt 0 view .LVU263
 827 00f0 1346     		mov	r3, r2
 828 00f2 0122     		movs	r2, #1
 829 00f4 83F86620 		strb	r2, [r3, #102]
 830 00f8 F1E7     		b	.L78
 831              	.LVL45:
 832              	.L80:
 833              	.LBB7:
 325:ContrlSys/ctr.c **** 					}
 834              		.loc 1 325 7 is_stmt 1 discriminator 2 view .LVU264
 325:ContrlSys/ctr.c **** 					}
 835              		.loc 1 325 38 is_stmt 0 discriminator 2 view .LVU265
 836 00fa 604B     		ldr	r3, .L97
 837 00fc 0101     		lsls	r1, r0, #4
 838 00fe 03EB0012 		add	r2, r3, r0, lsl #4
 839 0102 5B58     		ldr	r3, [r3, r1]
 325:ContrlSys/ctr.c **** 					}
 840              		.loc 1 325 27 discriminator 2 view .LVU266
 841 0104 5360     		str	r3, [r2, #4]
 323:ContrlSys/ctr.c **** 					{
 842              		.loc 1 323 24 is_stmt 1 discriminator 2 view .LVU267
 323:ContrlSys/ctr.c **** 					{
 843              		.loc 1 323 25 is_stmt 0 discriminator 2 view .LVU268
 844 0106 0130     		adds	r0, r0, #1
 845              	.LVL46:
 323:ContrlSys/ctr.c **** 					{
 846              		.loc 1 323 25 discriminator 2 view .LVU269
 847 0108 C0B2     		uxtb	r0, r0
 848              	.LVL47:
 849              	.L79:
 323:ContrlSys/ctr.c **** 					{
 850              		.loc 1 323 20 is_stmt 1 discriminator 1 view .LVU270
 323:ContrlSys/ctr.c **** 					{
 851              		.loc 1 323 6 is_stmt 0 discriminator 1 view .LVU271
 852 010a 0428     		cmp	r0, #4
 853 010c F5D9     		bls	.L80
 854              	.LBE7:
 328:ContrlSys/ctr.c **** 					ES.Alread_hit[1] = ES.Need_hit;
 855              		.loc 1 328 6 is_stmt 1 view .LVU272
 328:ContrlSys/ctr.c **** 					ES.Alread_hit[1] = ES.Need_hit;
 856              		.loc 1 328 21 is_stmt 0 view .LVU273
 857 010e FFF7FEFF 		bl	HAL_GetTick
 858              	.LVL48:
 328:ContrlSys/ctr.c **** 					ES.Alread_hit[1] = ES.Need_hit;
 859              		.loc 1 328 19 view .LVU274
 860 0112 5A4B     		ldr	r3, .L97
 861 0114 1866     		str	r0, [r3, #96]
 329:ContrlSys/ctr.c **** 					ES.last_state = activate_2;
ARM GAS  C:\Users\21945\AppData\Local\Temp\cc3xKqqk.s 			page 26


 862              		.loc 1 329 6 is_stmt 1 view .LVU275
 329:ContrlSys/ctr.c **** 					ES.last_state = activate_2;
 863              		.loc 1 329 27 is_stmt 0 view .LVU276
 864 0116 93F86720 		ldrb	r2, [r3, #103]	@ zero_extendqisi2
 329:ContrlSys/ctr.c **** 					ES.last_state = activate_2;
 865              		.loc 1 329 23 view .LVU277
 866 011a 83F86B20 		strb	r2, [r3, #107]
 330:ContrlSys/ctr.c **** 					
 867              		.loc 1 330 6 is_stmt 1 view .LVU278
 330:ContrlSys/ctr.c **** 					
 868              		.loc 1 330 20 is_stmt 0 view .LVU279
 869 011e 0222     		movs	r2, #2
 870 0120 83F86520 		strb	r2, [r3, #101]
 333:ContrlSys/ctr.c **** //						if(ES.Need_hit == ES.Alread_hit[1] || ES.Need_hit == ES.Alread_hit[0] || ES.Need_hit == ES.
 871              		.loc 1 333 7 is_stmt 1 view .LVU280
 333:ContrlSys/ctr.c **** //						if(ES.Need_hit == ES.Alread_hit[1] || ES.Need_hit == ES.Alread_hit[0] || ES.Need_hit == ES.
 872              		.loc 1 333 19 is_stmt 0 view .LVU281
 873 0124 0421     		movs	r1, #4
 874 0126 83F86710 		strb	r1, [r3, #103]
 337:ContrlSys/ctr.c **** 					ES.StateSwitch_flag = 1;
 875              		.loc 1 337 6 is_stmt 1 view .LVU282
 337:ContrlSys/ctr.c **** 					ES.StateSwitch_flag = 1;
 876              		.loc 1 337 23 is_stmt 0 view .LVU283
 877 012a 83F86810 		strb	r1, [r3, #104]
 338:ContrlSys/ctr.c **** 					ES.fan[ES.Need_hit].mode = Flow;
 878              		.loc 1 338 6 is_stmt 1 view .LVU284
 338:ContrlSys/ctr.c **** 					ES.fan[ES.Need_hit].mode = Flow;
 879              		.loc 1 338 26 is_stmt 0 view .LVU285
 880 012e 0121     		movs	r1, #1
 881 0130 83F86910 		strb	r1, [r3, #105]
 339:ContrlSys/ctr.c **** 				}
 882              		.loc 1 339 6 is_stmt 1 view .LVU286
 339:ContrlSys/ctr.c **** 				}
 883              		.loc 1 339 31 is_stmt 0 view .LVU287
 884 0134 1A64     		str	r2, [r3, #64]
 885 0136 8FE7     		b	.L65
 886              	.L70:
 339:ContrlSys/ctr.c **** 				}
 887              		.loc 1 339 31 view .LVU288
 888 0138 1946     		mov	r1, r3
 344:ContrlSys/ctr.c **** 				{
 889              		.loc 1 344 5 is_stmt 1 view .LVU289
 344:ContrlSys/ctr.c **** 				{
 890              		.loc 1 344 17 is_stmt 0 view .LVU290
 891 013a 504A     		ldr	r2, .L97
 892 013c 92F86730 		ldrb	r3, [r2, #103]	@ zero_extendqisi2
 344:ContrlSys/ctr.c **** 				{
 893              		.loc 1 344 27 view .LVU291
 894 0140 1B01     		lsls	r3, r3, #4
 895 0142 D358     		ldr	r3, [r2, r3]
 344:ContrlSys/ctr.c **** 				{
 896              		.loc 1 344 7 view .LVU292
 897 0144 012B     		cmp	r3, #1
 898 0146 03D0     		beq	.L81
 344:ContrlSys/ctr.c **** 				{
 899              		.loc 1 344 54 discriminator 1 view .LVU293
 900 0148 4D4B     		ldr	r3, .L97+4
ARM GAS  C:\Users\21945\AppData\Local\Temp\cc3xKqqk.s 			page 27


 901 014a 1B78     		ldrb	r3, [r3]	@ zero_extendqisi2
 344:ContrlSys/ctr.c **** 				{
 902              		.loc 1 344 39 discriminator 1 view .LVU294
 903 014c 022B     		cmp	r3, #2
 904 014e 08D0     		beq	.L94
 905              	.L81:
 348:ContrlSys/ctr.c **** 				
 906              		.loc 1 348 5 is_stmt 1 view .LVU295
 348:ContrlSys/ctr.c **** 				
 907              		.loc 1 348 17 is_stmt 0 view .LVU296
 908 0150 4B4B     		ldr	r3, .L97+4
 909 0152 0322     		movs	r2, #3
 910 0154 1A70     		strb	r2, [r3]
 350:ContrlSys/ctr.c **** 				{
 911              		.loc 1 350 5 is_stmt 1 view .LVU297
 350:ContrlSys/ctr.c **** 				{
 912              		.loc 1 350 10 is_stmt 0 view .LVU298
 913 0156 494B     		ldr	r3, .L97
 914 0158 93F86530 		ldrb	r3, [r3, #101]	@ zero_extendqisi2
 350:ContrlSys/ctr.c **** 				{
 915              		.loc 1 350 7 view .LVU299
 916 015c 9342     		cmp	r3, r2
 917 015e 0DD1     		bne	.L82
 918 0160 7AE7     		b	.L65
 919              	.L94:
 346:ContrlSys/ctr.c **** 				}
 920              		.loc 1 346 6 is_stmt 1 view .LVU300
 346:ContrlSys/ctr.c **** 				}
 921              		.loc 1 346 20 is_stmt 0 view .LVU301
 922 0162 1346     		mov	r3, r2
 923 0164 0122     		movs	r2, #1
 924 0166 83F86620 		strb	r2, [r3, #102]
 925 016a F1E7     		b	.L81
 926              	.LVL49:
 927              	.L83:
 928              	.LBB8:
 354:ContrlSys/ctr.c **** 					}
 929              		.loc 1 354 7 is_stmt 1 discriminator 2 view .LVU302
 354:ContrlSys/ctr.c **** 					}
 930              		.loc 1 354 38 is_stmt 0 discriminator 2 view .LVU303
 931 016c 434B     		ldr	r3, .L97
 932 016e 0801     		lsls	r0, r1, #4
 933 0170 03EB0112 		add	r2, r3, r1, lsl #4
 934 0174 1B58     		ldr	r3, [r3, r0]
 354:ContrlSys/ctr.c **** 					}
 935              		.loc 1 354 27 discriminator 2 view .LVU304
 936 0176 5360     		str	r3, [r2, #4]
 352:ContrlSys/ctr.c **** 					{
 937              		.loc 1 352 24 is_stmt 1 discriminator 2 view .LVU305
 352:ContrlSys/ctr.c **** 					{
 938              		.loc 1 352 25 is_stmt 0 discriminator 2 view .LVU306
 939 0178 0131     		adds	r1, r1, #1
 940              	.LVL50:
 352:ContrlSys/ctr.c **** 					{
 941              		.loc 1 352 25 discriminator 2 view .LVU307
 942 017a C9B2     		uxtb	r1, r1
 943              	.LVL51:
ARM GAS  C:\Users\21945\AppData\Local\Temp\cc3xKqqk.s 			page 28


 944              	.L82:
 352:ContrlSys/ctr.c **** 					{
 945              		.loc 1 352 20 is_stmt 1 discriminator 1 view .LVU308
 352:ContrlSys/ctr.c **** 					{
 946              		.loc 1 352 6 is_stmt 0 discriminator 1 view .LVU309
 947 017c 0429     		cmp	r1, #4
 948 017e F5D9     		bls	.L83
 949              	.LBE8:
 357:ContrlSys/ctr.c **** 					ES.Alread_hit[2] = ES.Need_hit;//修改处
 950              		.loc 1 357 6 is_stmt 1 view .LVU310
 357:ContrlSys/ctr.c **** 					ES.Alread_hit[2] = ES.Need_hit;//修改处
 951              		.loc 1 357 21 is_stmt 0 view .LVU311
 952 0180 FFF7FEFF 		bl	HAL_GetTick
 953              	.LVL52:
 357:ContrlSys/ctr.c **** 					ES.Alread_hit[2] = ES.Need_hit;//修改处
 954              		.loc 1 357 19 view .LVU312
 955 0184 3D4B     		ldr	r3, .L97
 956 0186 1866     		str	r0, [r3, #96]
 358:ContrlSys/ctr.c **** 					ES.last_state = activate_3;//修改处
 957              		.loc 1 358 6 is_stmt 1 view .LVU313
 358:ContrlSys/ctr.c **** 					ES.last_state = activate_3;//修改处
 958              		.loc 1 358 27 is_stmt 0 view .LVU314
 959 0188 93F86720 		ldrb	r2, [r3, #103]	@ zero_extendqisi2
 358:ContrlSys/ctr.c **** 					ES.last_state = activate_3;//修改处
 960              		.loc 1 358 23 view .LVU315
 961 018c 83F86C20 		strb	r2, [r3, #108]
 359:ContrlSys/ctr.c **** 					
 962              		.loc 1 359 6 is_stmt 1 view .LVU316
 359:ContrlSys/ctr.c **** 					
 963              		.loc 1 359 20 is_stmt 0 view .LVU317
 964 0190 0322     		movs	r2, #3
 965 0192 83F86520 		strb	r2, [r3, #101]
 362:ContrlSys/ctr.c **** //						if(ES.Need_hit == ES.Alread_hit[2] || ES.Need_hit == ES.Alread_hit[1] || ES.Need_hit == ES.
 966              		.loc 1 362 7 is_stmt 1 view .LVU318
 362:ContrlSys/ctr.c **** //						if(ES.Need_hit == ES.Alread_hit[2] || ES.Need_hit == ES.Alread_hit[1] || ES.Need_hit == ES.
 967              		.loc 1 362 19 is_stmt 0 view .LVU319
 968 0196 0222     		movs	r2, #2
 969 0198 83F86720 		strb	r2, [r3, #103]
 366:ContrlSys/ctr.c **** 					ES.StateSwitch_flag = 1;
 970              		.loc 1 366 6 is_stmt 1 view .LVU320
 366:ContrlSys/ctr.c **** 					ES.StateSwitch_flag = 1;
 971              		.loc 1 366 23 is_stmt 0 view .LVU321
 972 019c 83F86820 		strb	r2, [r3, #104]
 367:ContrlSys/ctr.c **** 					ES.fan[ES.Need_hit].mode = Flow;
 973              		.loc 1 367 6 is_stmt 1 view .LVU322
 367:ContrlSys/ctr.c **** 					ES.fan[ES.Need_hit].mode = Flow;
 974              		.loc 1 367 26 is_stmt 0 view .LVU323
 975 01a0 0121     		movs	r1, #1
 976 01a2 83F86910 		strb	r1, [r3, #105]
 368:ContrlSys/ctr.c **** 				}
 977              		.loc 1 368 6 is_stmt 1 view .LVU324
 368:ContrlSys/ctr.c **** 				}
 978              		.loc 1 368 31 is_stmt 0 view .LVU325
 979 01a6 1A62     		str	r2, [r3, #32]
 980 01a8 56E7     		b	.L65
 981              	.L69:
 368:ContrlSys/ctr.c **** 				}
ARM GAS  C:\Users\21945\AppData\Local\Temp\cc3xKqqk.s 			page 29


 982              		.loc 1 368 31 view .LVU326
 983 01aa 1A46     		mov	r2, r3
 373:ContrlSys/ctr.c **** 				{
 984              		.loc 1 373 5 is_stmt 1 view .LVU327
 373:ContrlSys/ctr.c **** 				{
 985              		.loc 1 373 17 is_stmt 0 view .LVU328
 986 01ac 3349     		ldr	r1, .L97
 987 01ae 91F86730 		ldrb	r3, [r1, #103]	@ zero_extendqisi2
 373:ContrlSys/ctr.c **** 				{
 988              		.loc 1 373 27 view .LVU329
 989 01b2 1B01     		lsls	r3, r3, #4
 990 01b4 CB58     		ldr	r3, [r1, r3]
 373:ContrlSys/ctr.c **** 				{
 991              		.loc 1 373 7 view .LVU330
 992 01b6 012B     		cmp	r3, #1
 993 01b8 03D0     		beq	.L84
 373:ContrlSys/ctr.c **** 				{
 994              		.loc 1 373 54 discriminator 1 view .LVU331
 995 01ba 314B     		ldr	r3, .L97+4
 996 01bc 1B78     		ldrb	r3, [r3]	@ zero_extendqisi2
 373:ContrlSys/ctr.c **** 				{
 997              		.loc 1 373 39 discriminator 1 view .LVU332
 998 01be 032B     		cmp	r3, #3
 999 01c0 08D0     		beq	.L95
 1000              	.L84:
 377:ContrlSys/ctr.c **** 				
 1001              		.loc 1 377 5 is_stmt 1 view .LVU333
 377:ContrlSys/ctr.c **** 				
 1002              		.loc 1 377 17 is_stmt 0 view .LVU334
 1003 01c2 2F4B     		ldr	r3, .L97+4
 1004 01c4 0421     		movs	r1, #4
 1005 01c6 1970     		strb	r1, [r3]
 379:ContrlSys/ctr.c **** 				{
 1006              		.loc 1 379 5 is_stmt 1 view .LVU335
 379:ContrlSys/ctr.c **** 				{
 1007              		.loc 1 379 10 is_stmt 0 view .LVU336
 1008 01c8 2C4B     		ldr	r3, .L97
 1009 01ca 93F86530 		ldrb	r3, [r3, #101]	@ zero_extendqisi2
 379:ContrlSys/ctr.c **** 				{
 1010              		.loc 1 379 7 view .LVU337
 1011 01ce 8B42     		cmp	r3, r1
 1012 01d0 0DD1     		bne	.L85
 1013 01d2 41E7     		b	.L65
 1014              	.L95:
 375:ContrlSys/ctr.c **** 				}
 1015              		.loc 1 375 6 is_stmt 1 view .LVU338
 375:ContrlSys/ctr.c **** 				}
 1016              		.loc 1 375 20 is_stmt 0 view .LVU339
 1017 01d4 0B46     		mov	r3, r1
 1018 01d6 0121     		movs	r1, #1
 1019 01d8 83F86610 		strb	r1, [r3, #102]
 1020 01dc F1E7     		b	.L84
 1021              	.LVL53:
 1022              	.L86:
 1023              	.LBB9:
 383:ContrlSys/ctr.c **** 					}
 1024              		.loc 1 383 7 is_stmt 1 discriminator 2 view .LVU340
ARM GAS  C:\Users\21945\AppData\Local\Temp\cc3xKqqk.s 			page 30


 383:ContrlSys/ctr.c **** 					}
 1025              		.loc 1 383 38 is_stmt 0 discriminator 2 view .LVU341
 1026 01de 274B     		ldr	r3, .L97
 1027 01e0 1001     		lsls	r0, r2, #4
 1028 01e2 03EB0211 		add	r1, r3, r2, lsl #4
 1029 01e6 1B58     		ldr	r3, [r3, r0]
 383:ContrlSys/ctr.c **** 					}
 1030              		.loc 1 383 27 discriminator 2 view .LVU342
 1031 01e8 4B60     		str	r3, [r1, #4]
 381:ContrlSys/ctr.c **** 					{
 1032              		.loc 1 381 24 is_stmt 1 discriminator 2 view .LVU343
 381:ContrlSys/ctr.c **** 					{
 1033              		.loc 1 381 25 is_stmt 0 discriminator 2 view .LVU344
 1034 01ea 0132     		adds	r2, r2, #1
 1035              	.LVL54:
 381:ContrlSys/ctr.c **** 					{
 1036              		.loc 1 381 25 discriminator 2 view .LVU345
 1037 01ec D2B2     		uxtb	r2, r2
 1038              	.LVL55:
 1039              	.L85:
 381:ContrlSys/ctr.c **** 					{
 1040              		.loc 1 381 20 is_stmt 1 discriminator 1 view .LVU346
 381:ContrlSys/ctr.c **** 					{
 1041              		.loc 1 381 6 is_stmt 0 discriminator 1 view .LVU347
 1042 01ee 042A     		cmp	r2, #4
 1043 01f0 F5D9     		bls	.L86
 1044              	.LBE9:
 386:ContrlSys/ctr.c **** 					ES.Alread_hit[3] = ES.Need_hit;//修改处
 1045              		.loc 1 386 6 is_stmt 1 view .LVU348
 386:ContrlSys/ctr.c **** 					ES.Alread_hit[3] = ES.Need_hit;//修改处
 1046              		.loc 1 386 21 is_stmt 0 view .LVU349
 1047 01f2 FFF7FEFF 		bl	HAL_GetTick
 1048              	.LVL56:
 386:ContrlSys/ctr.c **** 					ES.Alread_hit[3] = ES.Need_hit;//修改处
 1049              		.loc 1 386 19 view .LVU350
 1050 01f6 214B     		ldr	r3, .L97
 1051 01f8 1866     		str	r0, [r3, #96]
 387:ContrlSys/ctr.c **** 					ES.last_state = activate_4;//修改处
 1052              		.loc 1 387 6 is_stmt 1 view .LVU351
 387:ContrlSys/ctr.c **** 					ES.last_state = activate_4;//修改处
 1053              		.loc 1 387 27 is_stmt 0 view .LVU352
 1054 01fa 93F86720 		ldrb	r2, [r3, #103]	@ zero_extendqisi2
 387:ContrlSys/ctr.c **** 					ES.last_state = activate_4;//修改处
 1055              		.loc 1 387 23 view .LVU353
 1056 01fe 83F86D20 		strb	r2, [r3, #109]
 388:ContrlSys/ctr.c **** 					
 1057              		.loc 1 388 6 is_stmt 1 view .LVU354
 388:ContrlSys/ctr.c **** 					
 1058              		.loc 1 388 20 is_stmt 0 view .LVU355
 1059 0202 0422     		movs	r2, #4
 1060 0204 83F86520 		strb	r2, [r3, #101]
 391:ContrlSys/ctr.c **** //						if(ES.Need_hit == ES.Alread_hit[3] || ES.Need_hit == ES.Alread_hit[2] || ES.Need_hit == ES.
 1061              		.loc 1 391 7 is_stmt 1 view .LVU356
 391:ContrlSys/ctr.c **** //						if(ES.Need_hit == ES.Alread_hit[3] || ES.Need_hit == ES.Alread_hit[2] || ES.Need_hit == ES.
 1062              		.loc 1 391 19 is_stmt 0 view .LVU357
 1063 0208 0322     		movs	r2, #3
 1064 020a 83F86720 		strb	r2, [r3, #103]
ARM GAS  C:\Users\21945\AppData\Local\Temp\cc3xKqqk.s 			page 31


 395:ContrlSys/ctr.c **** 					ES.StateSwitch_flag = 1;
 1065              		.loc 1 395 6 is_stmt 1 view .LVU358
 395:ContrlSys/ctr.c **** 					ES.StateSwitch_flag = 1;
 1066              		.loc 1 395 23 is_stmt 0 view .LVU359
 1067 020e 83F86820 		strb	r2, [r3, #104]
 396:ContrlSys/ctr.c **** 					ES.fan[ES.Need_hit].mode = Flow;
 1068              		.loc 1 396 6 is_stmt 1 view .LVU360
 396:ContrlSys/ctr.c **** 					ES.fan[ES.Need_hit].mode = Flow;
 1069              		.loc 1 396 26 is_stmt 0 view .LVU361
 1070 0212 0122     		movs	r2, #1
 1071 0214 83F86920 		strb	r2, [r3, #105]
 397:ContrlSys/ctr.c **** 				}
 1072              		.loc 1 397 6 is_stmt 1 view .LVU362
 397:ContrlSys/ctr.c **** 				}
 1073              		.loc 1 397 31 is_stmt 0 view .LVU363
 1074 0218 0222     		movs	r2, #2
 1075 021a 1A63     		str	r2, [r3, #48]
 1076 021c 1CE7     		b	.L65
 1077              	.L67:
 402:ContrlSys/ctr.c **** 				{
 1078              		.loc 1 402 5 is_stmt 1 view .LVU364
 402:ContrlSys/ctr.c **** 				{
 1079              		.loc 1 402 17 is_stmt 0 view .LVU365
 1080 021e 174A     		ldr	r2, .L97
 1081 0220 92F86730 		ldrb	r3, [r2, #103]	@ zero_extendqisi2
 402:ContrlSys/ctr.c **** 				{
 1082              		.loc 1 402 27 view .LVU366
 1083 0224 1B01     		lsls	r3, r3, #4
 1084 0226 D358     		ldr	r3, [r2, r3]
 402:ContrlSys/ctr.c **** 				{
 1085              		.loc 1 402 7 view .LVU367
 1086 0228 012B     		cmp	r3, #1
 1087 022a 03D0     		beq	.L87
 402:ContrlSys/ctr.c **** 				{
 1088              		.loc 1 402 54 discriminator 1 view .LVU368
 1089 022c 144B     		ldr	r3, .L97+4
 1090 022e 1B78     		ldrb	r3, [r3]	@ zero_extendqisi2
 402:ContrlSys/ctr.c **** 				{
 1091              		.loc 1 402 39 discriminator 1 view .LVU369
 1092 0230 042B     		cmp	r3, #4
 1093 0232 0AD0     		beq	.L96
 1094              	.L87:
 406:ContrlSys/ctr.c **** 				
 1095              		.loc 1 406 5 is_stmt 1 view .LVU370
 406:ContrlSys/ctr.c **** 				
 1096              		.loc 1 406 17 is_stmt 0 view .LVU371
 1097 0234 124B     		ldr	r3, .L97+4
 1098 0236 0522     		movs	r2, #5
 1099 0238 1A70     		strb	r2, [r3]
 408:ContrlSys/ctr.c **** 				{
 1100              		.loc 1 408 5 is_stmt 1 view .LVU372
 408:ContrlSys/ctr.c **** 				{
 1101              		.loc 1 408 10 is_stmt 0 view .LVU373
 1102 023a 104B     		ldr	r3, .L97
 1103 023c 93F86530 		ldrb	r3, [r3, #101]	@ zero_extendqisi2
 408:ContrlSys/ctr.c **** 				{
 1104              		.loc 1 408 7 view .LVU374
ARM GAS  C:\Users\21945\AppData\Local\Temp\cc3xKqqk.s 			page 32


 1105 0240 9342     		cmp	r3, r2
 1106 0242 3FF409AF 		beq	.L65
 1107              	.LBB10:
 410:ContrlSys/ctr.c **** 						ES.fan[i].last_mode = ES.fan[i].mode;
 1108              		.loc 1 410 18 view .LVU375
 1109 0246 0023     		movs	r3, #0
 1110 0248 0CE0     		b	.L88
 1111              	.L96:
 1112              	.LBE10:
 404:ContrlSys/ctr.c **** 				}
 1113              		.loc 1 404 6 is_stmt 1 view .LVU376
 404:ContrlSys/ctr.c **** 				}
 1114              		.loc 1 404 20 is_stmt 0 view .LVU377
 1115 024a 1346     		mov	r3, r2
 1116 024c 0122     		movs	r2, #1
 1117 024e 83F86620 		strb	r2, [r3, #102]
 1118 0252 EFE7     		b	.L87
 1119              	.LVL57:
 1120              	.L89:
 1121              	.LBB11:
 411:ContrlSys/ctr.c **** 					}
 1122              		.loc 1 411 7 is_stmt 1 discriminator 3 view .LVU378
 411:ContrlSys/ctr.c **** 					}
 1123              		.loc 1 411 38 is_stmt 0 discriminator 3 view .LVU379
 1124 0254 094A     		ldr	r2, .L97
 1125 0256 1801     		lsls	r0, r3, #4
 1126 0258 02EB0311 		add	r1, r2, r3, lsl #4
 1127 025c 1258     		ldr	r2, [r2, r0]
 411:ContrlSys/ctr.c **** 					}
 1128              		.loc 1 411 27 discriminator 3 view .LVU380
 1129 025e 4A60     		str	r2, [r1, #4]
 410:ContrlSys/ctr.c **** 						ES.fan[i].last_mode = ES.fan[i].mode;
 1130              		.loc 1 410 26 is_stmt 1 discriminator 3 view .LVU381
 410:ContrlSys/ctr.c **** 						ES.fan[i].last_mode = ES.fan[i].mode;
 1131              		.loc 1 410 27 is_stmt 0 discriminator 3 view .LVU382
 1132 0260 0133     		adds	r3, r3, #1
 1133              	.LVL58:
 410:ContrlSys/ctr.c **** 						ES.fan[i].last_mode = ES.fan[i].mode;
 1134              		.loc 1 410 27 discriminator 3 view .LVU383
 1135 0262 DBB2     		uxtb	r3, r3
 1136              	.LVL59:
 1137              	.L88:
 410:ContrlSys/ctr.c **** 						ES.fan[i].last_mode = ES.fan[i].mode;
 1138              		.loc 1 410 22 is_stmt 1 discriminator 1 view .LVU384
 410:ContrlSys/ctr.c **** 						ES.fan[i].last_mode = ES.fan[i].mode;
 1139              		.loc 1 410 6 is_stmt 0 discriminator 1 view .LVU385
 1140 0264 042B     		cmp	r3, #4
 1141 0266 F5D9     		bls	.L89
 1142              	.LBE11:
 414:ContrlSys/ctr.c **** 					ES.Alread_hit[4] = ES.Need_hit;
 1143              		.loc 1 414 6 is_stmt 1 view .LVU386
 414:ContrlSys/ctr.c **** 					ES.Alread_hit[4] = ES.Need_hit;
 1144              		.loc 1 414 21 is_stmt 0 view .LVU387
 1145 0268 FFF7FEFF 		bl	HAL_GetTick
 1146              	.LVL60:
 414:ContrlSys/ctr.c **** 					ES.Alread_hit[4] = ES.Need_hit;
 1147              		.loc 1 414 19 view .LVU388
ARM GAS  C:\Users\21945\AppData\Local\Temp\cc3xKqqk.s 			page 33


 1148 026c 034B     		ldr	r3, .L97
 1149 026e 1866     		str	r0, [r3, #96]
 415:ContrlSys/ctr.c **** //					ES.last_state = success_activate;
 1150              		.loc 1 415 6 is_stmt 1 view .LVU389
 415:ContrlSys/ctr.c **** //					ES.last_state = success_activate;
 1151              		.loc 1 415 27 is_stmt 0 view .LVU390
 1152 0270 93F86720 		ldrb	r2, [r3, #103]	@ zero_extendqisi2
 415:ContrlSys/ctr.c **** //					ES.last_state = success_activate;
 1153              		.loc 1 415 23 view .LVU391
 1154 0274 83F86E20 		strb	r2, [r3, #110]
 1155              		.loc 1 421 1 view .LVU392
 1156 0278 EEE6     		b	.L65
 1157              	.L98:
 1158 027a 00BF     		.align	2
 1159              	.L97:
 1160 027c 00000000 		.word	.LANCHOR0
 1161 0280 00000000 		.word	.LANCHOR1
 1162              		.cfi_endproc
 1163              	.LFE72:
 1165              		.section	.text.Trigger_Switchstate,"ax",%progbits
 1166              		.align	1
 1167              		.global	Trigger_Switchstate
 1168              		.syntax unified
 1169              		.thumb
 1170              		.thumb_func
 1172              	Trigger_Switchstate:
 1173              	.LFB73:
 422:ContrlSys/ctr.c **** 
 423:ContrlSys/ctr.c **** /*
 424:ContrlSys/ctr.c **** *
 425:ContrlSys/ctr.c **** *检测模式触发
 426:ContrlSys/ctr.c **** *将错误自检加入检测模式中
 427:ContrlSys/ctr.c **** *
 428:ContrlSys/ctr.c **** **/
 429:ContrlSys/ctr.c **** void Trigger_Switchstate()
 430:ContrlSys/ctr.c **** {
 1174              		.loc 1 430 1 is_stmt 1 view -0
 1175              		.cfi_startproc
 1176              		@ args = 0, pretend = 0, frame = 0
 1177              		@ frame_needed = 0, uses_anonymous_args = 0
 1178 0000 08B5     		push	{r3, lr}
 1179              	.LCFI11:
 1180              		.cfi_def_cfa_offset 8
 1181              		.cfi_offset 3, -8
 1182              		.cfi_offset 14, -4
 431:ContrlSys/ctr.c **** 	num = 0;
 1183              		.loc 1 431 2 view .LVU394
 1184              		.loc 1 431 6 is_stmt 0 view .LVU395
 1185 0002 0023     		movs	r3, #0
 1186 0004 204A     		ldr	r2, .L115
 1187 0006 1370     		strb	r3, [r2]
 432:ContrlSys/ctr.c **** 	for(uint8_t i=0;i<5;i++)
 1188              		.loc 1 432 2 is_stmt 1 view .LVU396
 1189              	.LBB12:
 1190              		.loc 1 432 6 view .LVU397
 1191              	.LVL61:
 1192              		.loc 1 432 2 is_stmt 0 view .LVU398
ARM GAS  C:\Users\21945\AppData\Local\Temp\cc3xKqqk.s 			page 34


 1193 0008 01E0     		b	.L100
 1194              	.LVL62:
 1195              	.L101:
 1196              		.loc 1 432 22 is_stmt 1 discriminator 2 view .LVU399
 1197              		.loc 1 432 23 is_stmt 0 discriminator 2 view .LVU400
 1198 000a 0133     		adds	r3, r3, #1
 1199              	.LVL63:
 1200              		.loc 1 432 23 discriminator 2 view .LVU401
 1201 000c DBB2     		uxtb	r3, r3
 1202              	.LVL64:
 1203              	.L100:
 1204              		.loc 1 432 18 is_stmt 1 discriminator 1 view .LVU402
 1205              		.loc 1 432 2 is_stmt 0 discriminator 1 view .LVU403
 1206 000e 042B     		cmp	r3, #4
 1207 0010 09D8     		bhi	.L113
 433:ContrlSys/ctr.c **** 	{
 434:ContrlSys/ctr.c **** 		if(ES.fan[i].mode == 1)
 1208              		.loc 1 434 3 is_stmt 1 view .LVU404
 1209              		.loc 1 434 15 is_stmt 0 view .LVU405
 1210 0012 1A01     		lsls	r2, r3, #4
 1211 0014 1D49     		ldr	r1, .L115+4
 1212 0016 8A58     		ldr	r2, [r1, r2]
 1213              		.loc 1 434 5 view .LVU406
 1214 0018 012A     		cmp	r2, #1
 1215 001a F6D1     		bne	.L101
 435:ContrlSys/ctr.c **** 		{
 436:ContrlSys/ctr.c **** 			num += 1;//记录激活状态
 1216              		.loc 1 436 4 is_stmt 1 view .LVU407
 1217              		.loc 1 436 8 is_stmt 0 view .LVU408
 1218 001c 1A49     		ldr	r1, .L115
 1219 001e 0A78     		ldrb	r2, [r1]	@ zero_extendqisi2
 1220 0020 0132     		adds	r2, r2, #1
 1221 0022 0A70     		strb	r2, [r1]
 1222 0024 F1E7     		b	.L101
 1223              	.L113:
 1224              	.LBE12:
 437:ContrlSys/ctr.c **** 		}
 438:ContrlSys/ctr.c **** 	}
 439:ContrlSys/ctr.c **** 	
 440:ContrlSys/ctr.c **** 	//错误自检
 441:ContrlSys/ctr.c **** 	if(ES.HitErrFlag)
 1225              		.loc 1 441 2 is_stmt 1 view .LVU409
 1226              		.loc 1 441 7 is_stmt 0 view .LVU410
 1227 0026 194B     		ldr	r3, .L115+4
 1228              	.LVL65:
 1229              		.loc 1 441 7 view .LVU411
 1230 0028 93F86630 		ldrb	r3, [r3, #102]	@ zero_extendqisi2
 1231              		.loc 1 441 4 view .LVU412
 1232 002c 43B9     		cbnz	r3, .L114
 1233              	.L103:
 442:ContrlSys/ctr.c **** 	{
 443:ContrlSys/ctr.c **** 		__set_FAULTMASK(1);
 444:ContrlSys/ctr.c **** 		HAL_NVIC_SystemReset();
 445:ContrlSys/ctr.c **** 
 446:ContrlSys/ctr.c **** 	}
 447:ContrlSys/ctr.c **** 	
 448:ContrlSys/ctr.c **** 	//时间自检
ARM GAS  C:\Users\21945\AppData\Local\Temp\cc3xKqqk.s 			page 35


 449:ContrlSys/ctr.c **** //	if(HAL_GetTick() - ES.timeStamp > 2500)
 450:ContrlSys/ctr.c **** //	{
 451:ContrlSys/ctr.c **** //			__set_FAULTMASK(1);
 452:ContrlSys/ctr.c **** //		HAL_NVIC_SystemReset();
 453:ContrlSys/ctr.c **** //	}
 454:ContrlSys/ctr.c **** 	
 455:ContrlSys/ctr.c **** 	switch(num)
 1234              		.loc 1 455 2 is_stmt 1 view .LVU413
 1235 002e 164B     		ldr	r3, .L115
 1236 0030 1B78     		ldrb	r3, [r3]	@ zero_extendqisi2
 1237 0032 052B     		cmp	r3, #5
 1238 0034 0ED8     		bhi	.L99
 1239 0036 DFE803F0 		tbb	[pc, r3]
 1240              	.L106:
 1241 003a 09       		.byte	(.L111-.L106)/2
 1242 003b 0E       		.byte	(.L110-.L106)/2
 1243 003c 13       		.byte	(.L109-.L106)/2
 1244 003d 18       		.byte	(.L108-.L106)/2
 1245 003e 1D       		.byte	(.L107-.L106)/2
 1246 003f 22       		.byte	(.L105-.L106)/2
 1247              		.p2align 1
 1248              	.L114:
 443:ContrlSys/ctr.c **** 		HAL_NVIC_SystemReset();
 1249              		.loc 1 443 3 view .LVU414
 1250              	.LVL66:
 1251              	.LBB13:
 1252              	.LBI13:
 1253              		.file 2 "Drivers/CMSIS/Include/cmsis_gcc.h"
   1:Drivers/CMSIS/Include/cmsis_gcc.h **** /**************************************************************************//**
   2:Drivers/CMSIS/Include/cmsis_gcc.h ****  * @file     cmsis_gcc.h
   3:Drivers/CMSIS/Include/cmsis_gcc.h ****  * @brief    CMSIS compiler GCC header file
   4:Drivers/CMSIS/Include/cmsis_gcc.h ****  * @version  V5.0.4
   5:Drivers/CMSIS/Include/cmsis_gcc.h ****  * @date     09. April 2018
   6:Drivers/CMSIS/Include/cmsis_gcc.h ****  ******************************************************************************/
   7:Drivers/CMSIS/Include/cmsis_gcc.h **** /*
   8:Drivers/CMSIS/Include/cmsis_gcc.h ****  * Copyright (c) 2009-2018 Arm Limited. All rights reserved.
   9:Drivers/CMSIS/Include/cmsis_gcc.h ****  *
  10:Drivers/CMSIS/Include/cmsis_gcc.h ****  * SPDX-License-Identifier: Apache-2.0
  11:Drivers/CMSIS/Include/cmsis_gcc.h ****  *
  12:Drivers/CMSIS/Include/cmsis_gcc.h ****  * Licensed under the Apache License, Version 2.0 (the License); you may
  13:Drivers/CMSIS/Include/cmsis_gcc.h ****  * not use this file except in compliance with the License.
  14:Drivers/CMSIS/Include/cmsis_gcc.h ****  * You may obtain a copy of the License at
  15:Drivers/CMSIS/Include/cmsis_gcc.h ****  *
  16:Drivers/CMSIS/Include/cmsis_gcc.h ****  * www.apache.org/licenses/LICENSE-2.0
  17:Drivers/CMSIS/Include/cmsis_gcc.h ****  *
  18:Drivers/CMSIS/Include/cmsis_gcc.h ****  * Unless required by applicable law or agreed to in writing, software
  19:Drivers/CMSIS/Include/cmsis_gcc.h ****  * distributed under the License is distributed on an AS IS BASIS, WITHOUT
  20:Drivers/CMSIS/Include/cmsis_gcc.h ****  * WARRANTIES OR CONDITIONS OF ANY KIND, either express or implied.
  21:Drivers/CMSIS/Include/cmsis_gcc.h ****  * See the License for the specific language governing permissions and
  22:Drivers/CMSIS/Include/cmsis_gcc.h ****  * limitations under the License.
  23:Drivers/CMSIS/Include/cmsis_gcc.h ****  */
  24:Drivers/CMSIS/Include/cmsis_gcc.h **** 
  25:Drivers/CMSIS/Include/cmsis_gcc.h **** #ifndef __CMSIS_GCC_H
  26:Drivers/CMSIS/Include/cmsis_gcc.h **** #define __CMSIS_GCC_H
  27:Drivers/CMSIS/Include/cmsis_gcc.h **** 
  28:Drivers/CMSIS/Include/cmsis_gcc.h **** /* ignore some GCC warnings */
  29:Drivers/CMSIS/Include/cmsis_gcc.h **** #pragma GCC diagnostic push
ARM GAS  C:\Users\21945\AppData\Local\Temp\cc3xKqqk.s 			page 36


  30:Drivers/CMSIS/Include/cmsis_gcc.h **** #pragma GCC diagnostic ignored "-Wsign-conversion"
  31:Drivers/CMSIS/Include/cmsis_gcc.h **** #pragma GCC diagnostic ignored "-Wconversion"
  32:Drivers/CMSIS/Include/cmsis_gcc.h **** #pragma GCC diagnostic ignored "-Wunused-parameter"
  33:Drivers/CMSIS/Include/cmsis_gcc.h **** 
  34:Drivers/CMSIS/Include/cmsis_gcc.h **** /* Fallback for __has_builtin */
  35:Drivers/CMSIS/Include/cmsis_gcc.h **** #ifndef __has_builtin
  36:Drivers/CMSIS/Include/cmsis_gcc.h ****   #define __has_builtin(x) (0)
  37:Drivers/CMSIS/Include/cmsis_gcc.h **** #endif
  38:Drivers/CMSIS/Include/cmsis_gcc.h **** 
  39:Drivers/CMSIS/Include/cmsis_gcc.h **** /* CMSIS compiler specific defines */
  40:Drivers/CMSIS/Include/cmsis_gcc.h **** #ifndef   __ASM
  41:Drivers/CMSIS/Include/cmsis_gcc.h ****   #define __ASM                                  __asm
  42:Drivers/CMSIS/Include/cmsis_gcc.h **** #endif
  43:Drivers/CMSIS/Include/cmsis_gcc.h **** #ifndef   __INLINE
  44:Drivers/CMSIS/Include/cmsis_gcc.h ****   #define __INLINE                               inline
  45:Drivers/CMSIS/Include/cmsis_gcc.h **** #endif
  46:Drivers/CMSIS/Include/cmsis_gcc.h **** #ifndef   __STATIC_INLINE
  47:Drivers/CMSIS/Include/cmsis_gcc.h ****   #define __STATIC_INLINE                        static inline
  48:Drivers/CMSIS/Include/cmsis_gcc.h **** #endif
  49:Drivers/CMSIS/Include/cmsis_gcc.h **** #ifndef   __STATIC_FORCEINLINE                 
  50:Drivers/CMSIS/Include/cmsis_gcc.h ****   #define __STATIC_FORCEINLINE                   __attribute__((always_inline)) static inline
  51:Drivers/CMSIS/Include/cmsis_gcc.h **** #endif                                           
  52:Drivers/CMSIS/Include/cmsis_gcc.h **** #ifndef   __NO_RETURN
  53:Drivers/CMSIS/Include/cmsis_gcc.h ****   #define __NO_RETURN                            __attribute__((__noreturn__))
  54:Drivers/CMSIS/Include/cmsis_gcc.h **** #endif
  55:Drivers/CMSIS/Include/cmsis_gcc.h **** #ifndef   __USED
  56:Drivers/CMSIS/Include/cmsis_gcc.h ****   #define __USED                                 __attribute__((used))
  57:Drivers/CMSIS/Include/cmsis_gcc.h **** #endif
  58:Drivers/CMSIS/Include/cmsis_gcc.h **** #ifndef   __WEAK
  59:Drivers/CMSIS/Include/cmsis_gcc.h ****   #define __WEAK                                 __attribute__((weak))
  60:Drivers/CMSIS/Include/cmsis_gcc.h **** #endif
  61:Drivers/CMSIS/Include/cmsis_gcc.h **** #ifndef   __PACKED
  62:Drivers/CMSIS/Include/cmsis_gcc.h ****   #define __PACKED                               __attribute__((packed, aligned(1)))
  63:Drivers/CMSIS/Include/cmsis_gcc.h **** #endif
  64:Drivers/CMSIS/Include/cmsis_gcc.h **** #ifndef   __PACKED_STRUCT
  65:Drivers/CMSIS/Include/cmsis_gcc.h ****   #define __PACKED_STRUCT                        struct __attribute__((packed, aligned(1)))
  66:Drivers/CMSIS/Include/cmsis_gcc.h **** #endif
  67:Drivers/CMSIS/Include/cmsis_gcc.h **** #ifndef   __PACKED_UNION
  68:Drivers/CMSIS/Include/cmsis_gcc.h ****   #define __PACKED_UNION                         union __attribute__((packed, aligned(1)))
  69:Drivers/CMSIS/Include/cmsis_gcc.h **** #endif
  70:Drivers/CMSIS/Include/cmsis_gcc.h **** #ifndef   __UNALIGNED_UINT32        /* deprecated */
  71:Drivers/CMSIS/Include/cmsis_gcc.h ****   #pragma GCC diagnostic push
  72:Drivers/CMSIS/Include/cmsis_gcc.h ****   #pragma GCC diagnostic ignored "-Wpacked"
  73:Drivers/CMSIS/Include/cmsis_gcc.h ****   #pragma GCC diagnostic ignored "-Wattributes"
  74:Drivers/CMSIS/Include/cmsis_gcc.h ****   struct __attribute__((packed)) T_UINT32 { uint32_t v; };
  75:Drivers/CMSIS/Include/cmsis_gcc.h ****   #pragma GCC diagnostic pop
  76:Drivers/CMSIS/Include/cmsis_gcc.h ****   #define __UNALIGNED_UINT32(x)                  (((struct T_UINT32 *)(x))->v)
  77:Drivers/CMSIS/Include/cmsis_gcc.h **** #endif
  78:Drivers/CMSIS/Include/cmsis_gcc.h **** #ifndef   __UNALIGNED_UINT16_WRITE
  79:Drivers/CMSIS/Include/cmsis_gcc.h ****   #pragma GCC diagnostic push
  80:Drivers/CMSIS/Include/cmsis_gcc.h ****   #pragma GCC diagnostic ignored "-Wpacked"
  81:Drivers/CMSIS/Include/cmsis_gcc.h ****   #pragma GCC diagnostic ignored "-Wattributes"
  82:Drivers/CMSIS/Include/cmsis_gcc.h ****   __PACKED_STRUCT T_UINT16_WRITE { uint16_t v; };
  83:Drivers/CMSIS/Include/cmsis_gcc.h ****   #pragma GCC diagnostic pop
  84:Drivers/CMSIS/Include/cmsis_gcc.h ****   #define __UNALIGNED_UINT16_WRITE(addr, val)    (void)((((struct T_UINT16_WRITE *)(void *)(addr))-
  85:Drivers/CMSIS/Include/cmsis_gcc.h **** #endif
  86:Drivers/CMSIS/Include/cmsis_gcc.h **** #ifndef   __UNALIGNED_UINT16_READ
ARM GAS  C:\Users\21945\AppData\Local\Temp\cc3xKqqk.s 			page 37


  87:Drivers/CMSIS/Include/cmsis_gcc.h ****   #pragma GCC diagnostic push
  88:Drivers/CMSIS/Include/cmsis_gcc.h ****   #pragma GCC diagnostic ignored "-Wpacked"
  89:Drivers/CMSIS/Include/cmsis_gcc.h ****   #pragma GCC diagnostic ignored "-Wattributes"
  90:Drivers/CMSIS/Include/cmsis_gcc.h ****   __PACKED_STRUCT T_UINT16_READ { uint16_t v; };
  91:Drivers/CMSIS/Include/cmsis_gcc.h ****   #pragma GCC diagnostic pop
  92:Drivers/CMSIS/Include/cmsis_gcc.h ****   #define __UNALIGNED_UINT16_READ(addr)          (((const struct T_UINT16_READ *)(const void *)(add
  93:Drivers/CMSIS/Include/cmsis_gcc.h **** #endif
  94:Drivers/CMSIS/Include/cmsis_gcc.h **** #ifndef   __UNALIGNED_UINT32_WRITE
  95:Drivers/CMSIS/Include/cmsis_gcc.h ****   #pragma GCC diagnostic push
  96:Drivers/CMSIS/Include/cmsis_gcc.h ****   #pragma GCC diagnostic ignored "-Wpacked"
  97:Drivers/CMSIS/Include/cmsis_gcc.h ****   #pragma GCC diagnostic ignored "-Wattributes"
  98:Drivers/CMSIS/Include/cmsis_gcc.h ****   __PACKED_STRUCT T_UINT32_WRITE { uint32_t v; };
  99:Drivers/CMSIS/Include/cmsis_gcc.h ****   #pragma GCC diagnostic pop
 100:Drivers/CMSIS/Include/cmsis_gcc.h ****   #define __UNALIGNED_UINT32_WRITE(addr, val)    (void)((((struct T_UINT32_WRITE *)(void *)(addr))-
 101:Drivers/CMSIS/Include/cmsis_gcc.h **** #endif
 102:Drivers/CMSIS/Include/cmsis_gcc.h **** #ifndef   __UNALIGNED_UINT32_READ
 103:Drivers/CMSIS/Include/cmsis_gcc.h ****   #pragma GCC diagnostic push
 104:Drivers/CMSIS/Include/cmsis_gcc.h ****   #pragma GCC diagnostic ignored "-Wpacked"
 105:Drivers/CMSIS/Include/cmsis_gcc.h ****   #pragma GCC diagnostic ignored "-Wattributes"
 106:Drivers/CMSIS/Include/cmsis_gcc.h ****   __PACKED_STRUCT T_UINT32_READ { uint32_t v; };
 107:Drivers/CMSIS/Include/cmsis_gcc.h ****   #pragma GCC diagnostic pop
 108:Drivers/CMSIS/Include/cmsis_gcc.h ****   #define __UNALIGNED_UINT32_READ(addr)          (((const struct T_UINT32_READ *)(const void *)(add
 109:Drivers/CMSIS/Include/cmsis_gcc.h **** #endif
 110:Drivers/CMSIS/Include/cmsis_gcc.h **** #ifndef   __ALIGNED
 111:Drivers/CMSIS/Include/cmsis_gcc.h ****   #define __ALIGNED(x)                           __attribute__((aligned(x)))
 112:Drivers/CMSIS/Include/cmsis_gcc.h **** #endif
 113:Drivers/CMSIS/Include/cmsis_gcc.h **** #ifndef   __RESTRICT
 114:Drivers/CMSIS/Include/cmsis_gcc.h ****   #define __RESTRICT                             __restrict
 115:Drivers/CMSIS/Include/cmsis_gcc.h **** #endif
 116:Drivers/CMSIS/Include/cmsis_gcc.h **** 
 117:Drivers/CMSIS/Include/cmsis_gcc.h **** 
 118:Drivers/CMSIS/Include/cmsis_gcc.h **** /* ###########################  Core Function Access  ########################### */
 119:Drivers/CMSIS/Include/cmsis_gcc.h **** /** \ingroup  CMSIS_Core_FunctionInterface
 120:Drivers/CMSIS/Include/cmsis_gcc.h ****     \defgroup CMSIS_Core_RegAccFunctions CMSIS Core Register Access Functions
 121:Drivers/CMSIS/Include/cmsis_gcc.h ****   @{
 122:Drivers/CMSIS/Include/cmsis_gcc.h ****  */
 123:Drivers/CMSIS/Include/cmsis_gcc.h **** 
 124:Drivers/CMSIS/Include/cmsis_gcc.h **** /**
 125:Drivers/CMSIS/Include/cmsis_gcc.h ****   \brief   Enable IRQ Interrupts
 126:Drivers/CMSIS/Include/cmsis_gcc.h ****   \details Enables IRQ interrupts by clearing the I-bit in the CPSR.
 127:Drivers/CMSIS/Include/cmsis_gcc.h ****            Can only be executed in Privileged modes.
 128:Drivers/CMSIS/Include/cmsis_gcc.h ****  */
 129:Drivers/CMSIS/Include/cmsis_gcc.h **** __STATIC_FORCEINLINE void __enable_irq(void)
 130:Drivers/CMSIS/Include/cmsis_gcc.h **** {
 131:Drivers/CMSIS/Include/cmsis_gcc.h ****   __ASM volatile ("cpsie i" : : : "memory");
 132:Drivers/CMSIS/Include/cmsis_gcc.h **** }
 133:Drivers/CMSIS/Include/cmsis_gcc.h **** 
 134:Drivers/CMSIS/Include/cmsis_gcc.h **** 
 135:Drivers/CMSIS/Include/cmsis_gcc.h **** /**
 136:Drivers/CMSIS/Include/cmsis_gcc.h ****   \brief   Disable IRQ Interrupts
 137:Drivers/CMSIS/Include/cmsis_gcc.h ****   \details Disables IRQ interrupts by setting the I-bit in the CPSR.
 138:Drivers/CMSIS/Include/cmsis_gcc.h ****            Can only be executed in Privileged modes.
 139:Drivers/CMSIS/Include/cmsis_gcc.h ****  */
 140:Drivers/CMSIS/Include/cmsis_gcc.h **** __STATIC_FORCEINLINE void __disable_irq(void)
 141:Drivers/CMSIS/Include/cmsis_gcc.h **** {
 142:Drivers/CMSIS/Include/cmsis_gcc.h ****   __ASM volatile ("cpsid i" : : : "memory");
 143:Drivers/CMSIS/Include/cmsis_gcc.h **** }
ARM GAS  C:\Users\21945\AppData\Local\Temp\cc3xKqqk.s 			page 38


 144:Drivers/CMSIS/Include/cmsis_gcc.h **** 
 145:Drivers/CMSIS/Include/cmsis_gcc.h **** 
 146:Drivers/CMSIS/Include/cmsis_gcc.h **** /**
 147:Drivers/CMSIS/Include/cmsis_gcc.h ****   \brief   Get Control Register
 148:Drivers/CMSIS/Include/cmsis_gcc.h ****   \details Returns the content of the Control Register.
 149:Drivers/CMSIS/Include/cmsis_gcc.h ****   \return               Control Register value
 150:Drivers/CMSIS/Include/cmsis_gcc.h ****  */
 151:Drivers/CMSIS/Include/cmsis_gcc.h **** __STATIC_FORCEINLINE uint32_t __get_CONTROL(void)
 152:Drivers/CMSIS/Include/cmsis_gcc.h **** {
 153:Drivers/CMSIS/Include/cmsis_gcc.h ****   uint32_t result;
 154:Drivers/CMSIS/Include/cmsis_gcc.h **** 
 155:Drivers/CMSIS/Include/cmsis_gcc.h ****   __ASM volatile ("MRS %0, control" : "=r" (result) );
 156:Drivers/CMSIS/Include/cmsis_gcc.h ****   return(result);
 157:Drivers/CMSIS/Include/cmsis_gcc.h **** }
 158:Drivers/CMSIS/Include/cmsis_gcc.h **** 
 159:Drivers/CMSIS/Include/cmsis_gcc.h **** 
 160:Drivers/CMSIS/Include/cmsis_gcc.h **** #if (defined (__ARM_FEATURE_CMSE ) && (__ARM_FEATURE_CMSE == 3))
 161:Drivers/CMSIS/Include/cmsis_gcc.h **** /**
 162:Drivers/CMSIS/Include/cmsis_gcc.h ****   \brief   Get Control Register (non-secure)
 163:Drivers/CMSIS/Include/cmsis_gcc.h ****   \details Returns the content of the non-secure Control Register when in secure mode.
 164:Drivers/CMSIS/Include/cmsis_gcc.h ****   \return               non-secure Control Register value
 165:Drivers/CMSIS/Include/cmsis_gcc.h ****  */
 166:Drivers/CMSIS/Include/cmsis_gcc.h **** __STATIC_FORCEINLINE uint32_t __TZ_get_CONTROL_NS(void)
 167:Drivers/CMSIS/Include/cmsis_gcc.h **** {
 168:Drivers/CMSIS/Include/cmsis_gcc.h ****   uint32_t result;
 169:Drivers/CMSIS/Include/cmsis_gcc.h **** 
 170:Drivers/CMSIS/Include/cmsis_gcc.h ****   __ASM volatile ("MRS %0, control_ns" : "=r" (result) );
 171:Drivers/CMSIS/Include/cmsis_gcc.h ****   return(result);
 172:Drivers/CMSIS/Include/cmsis_gcc.h **** }
 173:Drivers/CMSIS/Include/cmsis_gcc.h **** #endif
 174:Drivers/CMSIS/Include/cmsis_gcc.h **** 
 175:Drivers/CMSIS/Include/cmsis_gcc.h **** 
 176:Drivers/CMSIS/Include/cmsis_gcc.h **** /**
 177:Drivers/CMSIS/Include/cmsis_gcc.h ****   \brief   Set Control Register
 178:Drivers/CMSIS/Include/cmsis_gcc.h ****   \details Writes the given value to the Control Register.
 179:Drivers/CMSIS/Include/cmsis_gcc.h ****   \param [in]    control  Control Register value to set
 180:Drivers/CMSIS/Include/cmsis_gcc.h ****  */
 181:Drivers/CMSIS/Include/cmsis_gcc.h **** __STATIC_FORCEINLINE void __set_CONTROL(uint32_t control)
 182:Drivers/CMSIS/Include/cmsis_gcc.h **** {
 183:Drivers/CMSIS/Include/cmsis_gcc.h ****   __ASM volatile ("MSR control, %0" : : "r" (control) : "memory");
 184:Drivers/CMSIS/Include/cmsis_gcc.h **** }
 185:Drivers/CMSIS/Include/cmsis_gcc.h **** 
 186:Drivers/CMSIS/Include/cmsis_gcc.h **** 
 187:Drivers/CMSIS/Include/cmsis_gcc.h **** #if (defined (__ARM_FEATURE_CMSE ) && (__ARM_FEATURE_CMSE == 3))
 188:Drivers/CMSIS/Include/cmsis_gcc.h **** /**
 189:Drivers/CMSIS/Include/cmsis_gcc.h ****   \brief   Set Control Register (non-secure)
 190:Drivers/CMSIS/Include/cmsis_gcc.h ****   \details Writes the given value to the non-secure Control Register when in secure state.
 191:Drivers/CMSIS/Include/cmsis_gcc.h ****   \param [in]    control  Control Register value to set
 192:Drivers/CMSIS/Include/cmsis_gcc.h ****  */
 193:Drivers/CMSIS/Include/cmsis_gcc.h **** __STATIC_FORCEINLINE void __TZ_set_CONTROL_NS(uint32_t control)
 194:Drivers/CMSIS/Include/cmsis_gcc.h **** {
 195:Drivers/CMSIS/Include/cmsis_gcc.h ****   __ASM volatile ("MSR control_ns, %0" : : "r" (control) : "memory");
 196:Drivers/CMSIS/Include/cmsis_gcc.h **** }
 197:Drivers/CMSIS/Include/cmsis_gcc.h **** #endif
 198:Drivers/CMSIS/Include/cmsis_gcc.h **** 
 199:Drivers/CMSIS/Include/cmsis_gcc.h **** 
 200:Drivers/CMSIS/Include/cmsis_gcc.h **** /**
ARM GAS  C:\Users\21945\AppData\Local\Temp\cc3xKqqk.s 			page 39


 201:Drivers/CMSIS/Include/cmsis_gcc.h ****   \brief   Get IPSR Register
 202:Drivers/CMSIS/Include/cmsis_gcc.h ****   \details Returns the content of the IPSR Register.
 203:Drivers/CMSIS/Include/cmsis_gcc.h ****   \return               IPSR Register value
 204:Drivers/CMSIS/Include/cmsis_gcc.h ****  */
 205:Drivers/CMSIS/Include/cmsis_gcc.h **** __STATIC_FORCEINLINE uint32_t __get_IPSR(void)
 206:Drivers/CMSIS/Include/cmsis_gcc.h **** {
 207:Drivers/CMSIS/Include/cmsis_gcc.h ****   uint32_t result;
 208:Drivers/CMSIS/Include/cmsis_gcc.h **** 
 209:Drivers/CMSIS/Include/cmsis_gcc.h ****   __ASM volatile ("MRS %0, ipsr" : "=r" (result) );
 210:Drivers/CMSIS/Include/cmsis_gcc.h ****   return(result);
 211:Drivers/CMSIS/Include/cmsis_gcc.h **** }
 212:Drivers/CMSIS/Include/cmsis_gcc.h **** 
 213:Drivers/CMSIS/Include/cmsis_gcc.h **** 
 214:Drivers/CMSIS/Include/cmsis_gcc.h **** /**
 215:Drivers/CMSIS/Include/cmsis_gcc.h ****   \brief   Get APSR Register
 216:Drivers/CMSIS/Include/cmsis_gcc.h ****   \details Returns the content of the APSR Register.
 217:Drivers/CMSIS/Include/cmsis_gcc.h ****   \return               APSR Register value
 218:Drivers/CMSIS/Include/cmsis_gcc.h ****  */
 219:Drivers/CMSIS/Include/cmsis_gcc.h **** __STATIC_FORCEINLINE uint32_t __get_APSR(void)
 220:Drivers/CMSIS/Include/cmsis_gcc.h **** {
 221:Drivers/CMSIS/Include/cmsis_gcc.h ****   uint32_t result;
 222:Drivers/CMSIS/Include/cmsis_gcc.h **** 
 223:Drivers/CMSIS/Include/cmsis_gcc.h ****   __ASM volatile ("MRS %0, apsr" : "=r" (result) );
 224:Drivers/CMSIS/Include/cmsis_gcc.h ****   return(result);
 225:Drivers/CMSIS/Include/cmsis_gcc.h **** }
 226:Drivers/CMSIS/Include/cmsis_gcc.h **** 
 227:Drivers/CMSIS/Include/cmsis_gcc.h **** 
 228:Drivers/CMSIS/Include/cmsis_gcc.h **** /**
 229:Drivers/CMSIS/Include/cmsis_gcc.h ****   \brief   Get xPSR Register
 230:Drivers/CMSIS/Include/cmsis_gcc.h ****   \details Returns the content of the xPSR Register.
 231:Drivers/CMSIS/Include/cmsis_gcc.h ****   \return               xPSR Register value
 232:Drivers/CMSIS/Include/cmsis_gcc.h ****  */
 233:Drivers/CMSIS/Include/cmsis_gcc.h **** __STATIC_FORCEINLINE uint32_t __get_xPSR(void)
 234:Drivers/CMSIS/Include/cmsis_gcc.h **** {
 235:Drivers/CMSIS/Include/cmsis_gcc.h ****   uint32_t result;
 236:Drivers/CMSIS/Include/cmsis_gcc.h **** 
 237:Drivers/CMSIS/Include/cmsis_gcc.h ****   __ASM volatile ("MRS %0, xpsr" : "=r" (result) );
 238:Drivers/CMSIS/Include/cmsis_gcc.h ****   return(result);
 239:Drivers/CMSIS/Include/cmsis_gcc.h **** }
 240:Drivers/CMSIS/Include/cmsis_gcc.h **** 
 241:Drivers/CMSIS/Include/cmsis_gcc.h **** 
 242:Drivers/CMSIS/Include/cmsis_gcc.h **** /**
 243:Drivers/CMSIS/Include/cmsis_gcc.h ****   \brief   Get Process Stack Pointer
 244:Drivers/CMSIS/Include/cmsis_gcc.h ****   \details Returns the current value of the Process Stack Pointer (PSP).
 245:Drivers/CMSIS/Include/cmsis_gcc.h ****   \return               PSP Register value
 246:Drivers/CMSIS/Include/cmsis_gcc.h ****  */
 247:Drivers/CMSIS/Include/cmsis_gcc.h **** __STATIC_FORCEINLINE uint32_t __get_PSP(void)
 248:Drivers/CMSIS/Include/cmsis_gcc.h **** {
 249:Drivers/CMSIS/Include/cmsis_gcc.h ****   uint32_t result;
 250:Drivers/CMSIS/Include/cmsis_gcc.h **** 
 251:Drivers/CMSIS/Include/cmsis_gcc.h ****   __ASM volatile ("MRS %0, psp"  : "=r" (result) );
 252:Drivers/CMSIS/Include/cmsis_gcc.h ****   return(result);
 253:Drivers/CMSIS/Include/cmsis_gcc.h **** }
 254:Drivers/CMSIS/Include/cmsis_gcc.h **** 
 255:Drivers/CMSIS/Include/cmsis_gcc.h **** 
 256:Drivers/CMSIS/Include/cmsis_gcc.h **** #if (defined (__ARM_FEATURE_CMSE ) && (__ARM_FEATURE_CMSE == 3))
 257:Drivers/CMSIS/Include/cmsis_gcc.h **** /**
ARM GAS  C:\Users\21945\AppData\Local\Temp\cc3xKqqk.s 			page 40


 258:Drivers/CMSIS/Include/cmsis_gcc.h ****   \brief   Get Process Stack Pointer (non-secure)
 259:Drivers/CMSIS/Include/cmsis_gcc.h ****   \details Returns the current value of the non-secure Process Stack Pointer (PSP) when in secure s
 260:Drivers/CMSIS/Include/cmsis_gcc.h ****   \return               PSP Register value
 261:Drivers/CMSIS/Include/cmsis_gcc.h ****  */
 262:Drivers/CMSIS/Include/cmsis_gcc.h **** __STATIC_FORCEINLINE uint32_t __TZ_get_PSP_NS(void)
 263:Drivers/CMSIS/Include/cmsis_gcc.h **** {
 264:Drivers/CMSIS/Include/cmsis_gcc.h ****   uint32_t result;
 265:Drivers/CMSIS/Include/cmsis_gcc.h **** 
 266:Drivers/CMSIS/Include/cmsis_gcc.h ****   __ASM volatile ("MRS %0, psp_ns"  : "=r" (result) );
 267:Drivers/CMSIS/Include/cmsis_gcc.h ****   return(result);
 268:Drivers/CMSIS/Include/cmsis_gcc.h **** }
 269:Drivers/CMSIS/Include/cmsis_gcc.h **** #endif
 270:Drivers/CMSIS/Include/cmsis_gcc.h **** 
 271:Drivers/CMSIS/Include/cmsis_gcc.h **** 
 272:Drivers/CMSIS/Include/cmsis_gcc.h **** /**
 273:Drivers/CMSIS/Include/cmsis_gcc.h ****   \brief   Set Process Stack Pointer
 274:Drivers/CMSIS/Include/cmsis_gcc.h ****   \details Assigns the given value to the Process Stack Pointer (PSP).
 275:Drivers/CMSIS/Include/cmsis_gcc.h ****   \param [in]    topOfProcStack  Process Stack Pointer value to set
 276:Drivers/CMSIS/Include/cmsis_gcc.h ****  */
 277:Drivers/CMSIS/Include/cmsis_gcc.h **** __STATIC_FORCEINLINE void __set_PSP(uint32_t topOfProcStack)
 278:Drivers/CMSIS/Include/cmsis_gcc.h **** {
 279:Drivers/CMSIS/Include/cmsis_gcc.h ****   __ASM volatile ("MSR psp, %0" : : "r" (topOfProcStack) : );
 280:Drivers/CMSIS/Include/cmsis_gcc.h **** }
 281:Drivers/CMSIS/Include/cmsis_gcc.h **** 
 282:Drivers/CMSIS/Include/cmsis_gcc.h **** 
 283:Drivers/CMSIS/Include/cmsis_gcc.h **** #if (defined (__ARM_FEATURE_CMSE ) && (__ARM_FEATURE_CMSE == 3))
 284:Drivers/CMSIS/Include/cmsis_gcc.h **** /**
 285:Drivers/CMSIS/Include/cmsis_gcc.h ****   \brief   Set Process Stack Pointer (non-secure)
 286:Drivers/CMSIS/Include/cmsis_gcc.h ****   \details Assigns the given value to the non-secure Process Stack Pointer (PSP) when in secure sta
 287:Drivers/CMSIS/Include/cmsis_gcc.h ****   \param [in]    topOfProcStack  Process Stack Pointer value to set
 288:Drivers/CMSIS/Include/cmsis_gcc.h ****  */
 289:Drivers/CMSIS/Include/cmsis_gcc.h **** __STATIC_FORCEINLINE void __TZ_set_PSP_NS(uint32_t topOfProcStack)
 290:Drivers/CMSIS/Include/cmsis_gcc.h **** {
 291:Drivers/CMSIS/Include/cmsis_gcc.h ****   __ASM volatile ("MSR psp_ns, %0" : : "r" (topOfProcStack) : );
 292:Drivers/CMSIS/Include/cmsis_gcc.h **** }
 293:Drivers/CMSIS/Include/cmsis_gcc.h **** #endif
 294:Drivers/CMSIS/Include/cmsis_gcc.h **** 
 295:Drivers/CMSIS/Include/cmsis_gcc.h **** 
 296:Drivers/CMSIS/Include/cmsis_gcc.h **** /**
 297:Drivers/CMSIS/Include/cmsis_gcc.h ****   \brief   Get Main Stack Pointer
 298:Drivers/CMSIS/Include/cmsis_gcc.h ****   \details Returns the current value of the Main Stack Pointer (MSP).
 299:Drivers/CMSIS/Include/cmsis_gcc.h ****   \return               MSP Register value
 300:Drivers/CMSIS/Include/cmsis_gcc.h ****  */
 301:Drivers/CMSIS/Include/cmsis_gcc.h **** __STATIC_FORCEINLINE uint32_t __get_MSP(void)
 302:Drivers/CMSIS/Include/cmsis_gcc.h **** {
 303:Drivers/CMSIS/Include/cmsis_gcc.h ****   uint32_t result;
 304:Drivers/CMSIS/Include/cmsis_gcc.h **** 
 305:Drivers/CMSIS/Include/cmsis_gcc.h ****   __ASM volatile ("MRS %0, msp" : "=r" (result) );
 306:Drivers/CMSIS/Include/cmsis_gcc.h ****   return(result);
 307:Drivers/CMSIS/Include/cmsis_gcc.h **** }
 308:Drivers/CMSIS/Include/cmsis_gcc.h **** 
 309:Drivers/CMSIS/Include/cmsis_gcc.h **** 
 310:Drivers/CMSIS/Include/cmsis_gcc.h **** #if (defined (__ARM_FEATURE_CMSE ) && (__ARM_FEATURE_CMSE == 3))
 311:Drivers/CMSIS/Include/cmsis_gcc.h **** /**
 312:Drivers/CMSIS/Include/cmsis_gcc.h ****   \brief   Get Main Stack Pointer (non-secure)
 313:Drivers/CMSIS/Include/cmsis_gcc.h ****   \details Returns the current value of the non-secure Main Stack Pointer (MSP) when in secure stat
 314:Drivers/CMSIS/Include/cmsis_gcc.h ****   \return               MSP Register value
ARM GAS  C:\Users\21945\AppData\Local\Temp\cc3xKqqk.s 			page 41


 315:Drivers/CMSIS/Include/cmsis_gcc.h ****  */
 316:Drivers/CMSIS/Include/cmsis_gcc.h **** __STATIC_FORCEINLINE uint32_t __TZ_get_MSP_NS(void)
 317:Drivers/CMSIS/Include/cmsis_gcc.h **** {
 318:Drivers/CMSIS/Include/cmsis_gcc.h ****   uint32_t result;
 319:Drivers/CMSIS/Include/cmsis_gcc.h **** 
 320:Drivers/CMSIS/Include/cmsis_gcc.h ****   __ASM volatile ("MRS %0, msp_ns" : "=r" (result) );
 321:Drivers/CMSIS/Include/cmsis_gcc.h ****   return(result);
 322:Drivers/CMSIS/Include/cmsis_gcc.h **** }
 323:Drivers/CMSIS/Include/cmsis_gcc.h **** #endif
 324:Drivers/CMSIS/Include/cmsis_gcc.h **** 
 325:Drivers/CMSIS/Include/cmsis_gcc.h **** 
 326:Drivers/CMSIS/Include/cmsis_gcc.h **** /**
 327:Drivers/CMSIS/Include/cmsis_gcc.h ****   \brief   Set Main Stack Pointer
 328:Drivers/CMSIS/Include/cmsis_gcc.h ****   \details Assigns the given value to the Main Stack Pointer (MSP).
 329:Drivers/CMSIS/Include/cmsis_gcc.h ****   \param [in]    topOfMainStack  Main Stack Pointer value to set
 330:Drivers/CMSIS/Include/cmsis_gcc.h ****  */
 331:Drivers/CMSIS/Include/cmsis_gcc.h **** __STATIC_FORCEINLINE void __set_MSP(uint32_t topOfMainStack)
 332:Drivers/CMSIS/Include/cmsis_gcc.h **** {
 333:Drivers/CMSIS/Include/cmsis_gcc.h ****   __ASM volatile ("MSR msp, %0" : : "r" (topOfMainStack) : );
 334:Drivers/CMSIS/Include/cmsis_gcc.h **** }
 335:Drivers/CMSIS/Include/cmsis_gcc.h **** 
 336:Drivers/CMSIS/Include/cmsis_gcc.h **** 
 337:Drivers/CMSIS/Include/cmsis_gcc.h **** #if (defined (__ARM_FEATURE_CMSE ) && (__ARM_FEATURE_CMSE == 3))
 338:Drivers/CMSIS/Include/cmsis_gcc.h **** /**
 339:Drivers/CMSIS/Include/cmsis_gcc.h ****   \brief   Set Main Stack Pointer (non-secure)
 340:Drivers/CMSIS/Include/cmsis_gcc.h ****   \details Assigns the given value to the non-secure Main Stack Pointer (MSP) when in secure state.
 341:Drivers/CMSIS/Include/cmsis_gcc.h ****   \param [in]    topOfMainStack  Main Stack Pointer value to set
 342:Drivers/CMSIS/Include/cmsis_gcc.h ****  */
 343:Drivers/CMSIS/Include/cmsis_gcc.h **** __STATIC_FORCEINLINE void __TZ_set_MSP_NS(uint32_t topOfMainStack)
 344:Drivers/CMSIS/Include/cmsis_gcc.h **** {
 345:Drivers/CMSIS/Include/cmsis_gcc.h ****   __ASM volatile ("MSR msp_ns, %0" : : "r" (topOfMainStack) : );
 346:Drivers/CMSIS/Include/cmsis_gcc.h **** }
 347:Drivers/CMSIS/Include/cmsis_gcc.h **** #endif
 348:Drivers/CMSIS/Include/cmsis_gcc.h **** 
 349:Drivers/CMSIS/Include/cmsis_gcc.h **** 
 350:Drivers/CMSIS/Include/cmsis_gcc.h **** #if (defined (__ARM_FEATURE_CMSE ) && (__ARM_FEATURE_CMSE == 3))
 351:Drivers/CMSIS/Include/cmsis_gcc.h **** /**
 352:Drivers/CMSIS/Include/cmsis_gcc.h ****   \brief   Get Stack Pointer (non-secure)
 353:Drivers/CMSIS/Include/cmsis_gcc.h ****   \details Returns the current value of the non-secure Stack Pointer (SP) when in secure state.
 354:Drivers/CMSIS/Include/cmsis_gcc.h ****   \return               SP Register value
 355:Drivers/CMSIS/Include/cmsis_gcc.h ****  */
 356:Drivers/CMSIS/Include/cmsis_gcc.h **** __STATIC_FORCEINLINE uint32_t __TZ_get_SP_NS(void)
 357:Drivers/CMSIS/Include/cmsis_gcc.h **** {
 358:Drivers/CMSIS/Include/cmsis_gcc.h ****   uint32_t result;
 359:Drivers/CMSIS/Include/cmsis_gcc.h **** 
 360:Drivers/CMSIS/Include/cmsis_gcc.h ****   __ASM volatile ("MRS %0, sp_ns" : "=r" (result) );
 361:Drivers/CMSIS/Include/cmsis_gcc.h ****   return(result);
 362:Drivers/CMSIS/Include/cmsis_gcc.h **** }
 363:Drivers/CMSIS/Include/cmsis_gcc.h **** 
 364:Drivers/CMSIS/Include/cmsis_gcc.h **** 
 365:Drivers/CMSIS/Include/cmsis_gcc.h **** /**
 366:Drivers/CMSIS/Include/cmsis_gcc.h ****   \brief   Set Stack Pointer (non-secure)
 367:Drivers/CMSIS/Include/cmsis_gcc.h ****   \details Assigns the given value to the non-secure Stack Pointer (SP) when in secure state.
 368:Drivers/CMSIS/Include/cmsis_gcc.h ****   \param [in]    topOfStack  Stack Pointer value to set
 369:Drivers/CMSIS/Include/cmsis_gcc.h ****  */
 370:Drivers/CMSIS/Include/cmsis_gcc.h **** __STATIC_FORCEINLINE void __TZ_set_SP_NS(uint32_t topOfStack)
 371:Drivers/CMSIS/Include/cmsis_gcc.h **** {
ARM GAS  C:\Users\21945\AppData\Local\Temp\cc3xKqqk.s 			page 42


 372:Drivers/CMSIS/Include/cmsis_gcc.h ****   __ASM volatile ("MSR sp_ns, %0" : : "r" (topOfStack) : );
 373:Drivers/CMSIS/Include/cmsis_gcc.h **** }
 374:Drivers/CMSIS/Include/cmsis_gcc.h **** #endif
 375:Drivers/CMSIS/Include/cmsis_gcc.h **** 
 376:Drivers/CMSIS/Include/cmsis_gcc.h **** 
 377:Drivers/CMSIS/Include/cmsis_gcc.h **** /**
 378:Drivers/CMSIS/Include/cmsis_gcc.h ****   \brief   Get Priority Mask
 379:Drivers/CMSIS/Include/cmsis_gcc.h ****   \details Returns the current state of the priority mask bit from the Priority Mask Register.
 380:Drivers/CMSIS/Include/cmsis_gcc.h ****   \return               Priority Mask value
 381:Drivers/CMSIS/Include/cmsis_gcc.h ****  */
 382:Drivers/CMSIS/Include/cmsis_gcc.h **** __STATIC_FORCEINLINE uint32_t __get_PRIMASK(void)
 383:Drivers/CMSIS/Include/cmsis_gcc.h **** {
 384:Drivers/CMSIS/Include/cmsis_gcc.h ****   uint32_t result;
 385:Drivers/CMSIS/Include/cmsis_gcc.h **** 
 386:Drivers/CMSIS/Include/cmsis_gcc.h ****   __ASM volatile ("MRS %0, primask" : "=r" (result) :: "memory");
 387:Drivers/CMSIS/Include/cmsis_gcc.h ****   return(result);
 388:Drivers/CMSIS/Include/cmsis_gcc.h **** }
 389:Drivers/CMSIS/Include/cmsis_gcc.h **** 
 390:Drivers/CMSIS/Include/cmsis_gcc.h **** 
 391:Drivers/CMSIS/Include/cmsis_gcc.h **** #if (defined (__ARM_FEATURE_CMSE ) && (__ARM_FEATURE_CMSE == 3))
 392:Drivers/CMSIS/Include/cmsis_gcc.h **** /**
 393:Drivers/CMSIS/Include/cmsis_gcc.h ****   \brief   Get Priority Mask (non-secure)
 394:Drivers/CMSIS/Include/cmsis_gcc.h ****   \details Returns the current state of the non-secure priority mask bit from the Priority Mask Reg
 395:Drivers/CMSIS/Include/cmsis_gcc.h ****   \return               Priority Mask value
 396:Drivers/CMSIS/Include/cmsis_gcc.h ****  */
 397:Drivers/CMSIS/Include/cmsis_gcc.h **** __STATIC_FORCEINLINE uint32_t __TZ_get_PRIMASK_NS(void)
 398:Drivers/CMSIS/Include/cmsis_gcc.h **** {
 399:Drivers/CMSIS/Include/cmsis_gcc.h ****   uint32_t result;
 400:Drivers/CMSIS/Include/cmsis_gcc.h **** 
 401:Drivers/CMSIS/Include/cmsis_gcc.h ****   __ASM volatile ("MRS %0, primask_ns" : "=r" (result) :: "memory");
 402:Drivers/CMSIS/Include/cmsis_gcc.h ****   return(result);
 403:Drivers/CMSIS/Include/cmsis_gcc.h **** }
 404:Drivers/CMSIS/Include/cmsis_gcc.h **** #endif
 405:Drivers/CMSIS/Include/cmsis_gcc.h **** 
 406:Drivers/CMSIS/Include/cmsis_gcc.h **** 
 407:Drivers/CMSIS/Include/cmsis_gcc.h **** /**
 408:Drivers/CMSIS/Include/cmsis_gcc.h ****   \brief   Set Priority Mask
 409:Drivers/CMSIS/Include/cmsis_gcc.h ****   \details Assigns the given value to the Priority Mask Register.
 410:Drivers/CMSIS/Include/cmsis_gcc.h ****   \param [in]    priMask  Priority Mask
 411:Drivers/CMSIS/Include/cmsis_gcc.h ****  */
 412:Drivers/CMSIS/Include/cmsis_gcc.h **** __STATIC_FORCEINLINE void __set_PRIMASK(uint32_t priMask)
 413:Drivers/CMSIS/Include/cmsis_gcc.h **** {
 414:Drivers/CMSIS/Include/cmsis_gcc.h ****   __ASM volatile ("MSR primask, %0" : : "r" (priMask) : "memory");
 415:Drivers/CMSIS/Include/cmsis_gcc.h **** }
 416:Drivers/CMSIS/Include/cmsis_gcc.h **** 
 417:Drivers/CMSIS/Include/cmsis_gcc.h **** 
 418:Drivers/CMSIS/Include/cmsis_gcc.h **** #if (defined (__ARM_FEATURE_CMSE ) && (__ARM_FEATURE_CMSE == 3))
 419:Drivers/CMSIS/Include/cmsis_gcc.h **** /**
 420:Drivers/CMSIS/Include/cmsis_gcc.h ****   \brief   Set Priority Mask (non-secure)
 421:Drivers/CMSIS/Include/cmsis_gcc.h ****   \details Assigns the given value to the non-secure Priority Mask Register when in secure state.
 422:Drivers/CMSIS/Include/cmsis_gcc.h ****   \param [in]    priMask  Priority Mask
 423:Drivers/CMSIS/Include/cmsis_gcc.h ****  */
 424:Drivers/CMSIS/Include/cmsis_gcc.h **** __STATIC_FORCEINLINE void __TZ_set_PRIMASK_NS(uint32_t priMask)
 425:Drivers/CMSIS/Include/cmsis_gcc.h **** {
 426:Drivers/CMSIS/Include/cmsis_gcc.h ****   __ASM volatile ("MSR primask_ns, %0" : : "r" (priMask) : "memory");
 427:Drivers/CMSIS/Include/cmsis_gcc.h **** }
 428:Drivers/CMSIS/Include/cmsis_gcc.h **** #endif
ARM GAS  C:\Users\21945\AppData\Local\Temp\cc3xKqqk.s 			page 43


 429:Drivers/CMSIS/Include/cmsis_gcc.h **** 
 430:Drivers/CMSIS/Include/cmsis_gcc.h **** 
 431:Drivers/CMSIS/Include/cmsis_gcc.h **** #if ((defined (__ARM_ARCH_7M__      ) && (__ARM_ARCH_7M__      == 1)) || \
 432:Drivers/CMSIS/Include/cmsis_gcc.h ****      (defined (__ARM_ARCH_7EM__     ) && (__ARM_ARCH_7EM__     == 1)) || \
 433:Drivers/CMSIS/Include/cmsis_gcc.h ****      (defined (__ARM_ARCH_8M_MAIN__ ) && (__ARM_ARCH_8M_MAIN__ == 1))    )
 434:Drivers/CMSIS/Include/cmsis_gcc.h **** /**
 435:Drivers/CMSIS/Include/cmsis_gcc.h ****   \brief   Enable FIQ
 436:Drivers/CMSIS/Include/cmsis_gcc.h ****   \details Enables FIQ interrupts by clearing the F-bit in the CPSR.
 437:Drivers/CMSIS/Include/cmsis_gcc.h ****            Can only be executed in Privileged modes.
 438:Drivers/CMSIS/Include/cmsis_gcc.h ****  */
 439:Drivers/CMSIS/Include/cmsis_gcc.h **** __STATIC_FORCEINLINE void __enable_fault_irq(void)
 440:Drivers/CMSIS/Include/cmsis_gcc.h **** {
 441:Drivers/CMSIS/Include/cmsis_gcc.h ****   __ASM volatile ("cpsie f" : : : "memory");
 442:Drivers/CMSIS/Include/cmsis_gcc.h **** }
 443:Drivers/CMSIS/Include/cmsis_gcc.h **** 
 444:Drivers/CMSIS/Include/cmsis_gcc.h **** 
 445:Drivers/CMSIS/Include/cmsis_gcc.h **** /**
 446:Drivers/CMSIS/Include/cmsis_gcc.h ****   \brief   Disable FIQ
 447:Drivers/CMSIS/Include/cmsis_gcc.h ****   \details Disables FIQ interrupts by setting the F-bit in the CPSR.
 448:Drivers/CMSIS/Include/cmsis_gcc.h ****            Can only be executed in Privileged modes.
 449:Drivers/CMSIS/Include/cmsis_gcc.h ****  */
 450:Drivers/CMSIS/Include/cmsis_gcc.h **** __STATIC_FORCEINLINE void __disable_fault_irq(void)
 451:Drivers/CMSIS/Include/cmsis_gcc.h **** {
 452:Drivers/CMSIS/Include/cmsis_gcc.h ****   __ASM volatile ("cpsid f" : : : "memory");
 453:Drivers/CMSIS/Include/cmsis_gcc.h **** }
 454:Drivers/CMSIS/Include/cmsis_gcc.h **** 
 455:Drivers/CMSIS/Include/cmsis_gcc.h **** 
 456:Drivers/CMSIS/Include/cmsis_gcc.h **** /**
 457:Drivers/CMSIS/Include/cmsis_gcc.h ****   \brief   Get Base Priority
 458:Drivers/CMSIS/Include/cmsis_gcc.h ****   \details Returns the current value of the Base Priority register.
 459:Drivers/CMSIS/Include/cmsis_gcc.h ****   \return               Base Priority register value
 460:Drivers/CMSIS/Include/cmsis_gcc.h ****  */
 461:Drivers/CMSIS/Include/cmsis_gcc.h **** __STATIC_FORCEINLINE uint32_t __get_BASEPRI(void)
 462:Drivers/CMSIS/Include/cmsis_gcc.h **** {
 463:Drivers/CMSIS/Include/cmsis_gcc.h ****   uint32_t result;
 464:Drivers/CMSIS/Include/cmsis_gcc.h **** 
 465:Drivers/CMSIS/Include/cmsis_gcc.h ****   __ASM volatile ("MRS %0, basepri" : "=r" (result) );
 466:Drivers/CMSIS/Include/cmsis_gcc.h ****   return(result);
 467:Drivers/CMSIS/Include/cmsis_gcc.h **** }
 468:Drivers/CMSIS/Include/cmsis_gcc.h **** 
 469:Drivers/CMSIS/Include/cmsis_gcc.h **** 
 470:Drivers/CMSIS/Include/cmsis_gcc.h **** #if (defined (__ARM_FEATURE_CMSE ) && (__ARM_FEATURE_CMSE == 3))
 471:Drivers/CMSIS/Include/cmsis_gcc.h **** /**
 472:Drivers/CMSIS/Include/cmsis_gcc.h ****   \brief   Get Base Priority (non-secure)
 473:Drivers/CMSIS/Include/cmsis_gcc.h ****   \details Returns the current value of the non-secure Base Priority register when in secure state.
 474:Drivers/CMSIS/Include/cmsis_gcc.h ****   \return               Base Priority register value
 475:Drivers/CMSIS/Include/cmsis_gcc.h ****  */
 476:Drivers/CMSIS/Include/cmsis_gcc.h **** __STATIC_FORCEINLINE uint32_t __TZ_get_BASEPRI_NS(void)
 477:Drivers/CMSIS/Include/cmsis_gcc.h **** {
 478:Drivers/CMSIS/Include/cmsis_gcc.h ****   uint32_t result;
 479:Drivers/CMSIS/Include/cmsis_gcc.h **** 
 480:Drivers/CMSIS/Include/cmsis_gcc.h ****   __ASM volatile ("MRS %0, basepri_ns" : "=r" (result) );
 481:Drivers/CMSIS/Include/cmsis_gcc.h ****   return(result);
 482:Drivers/CMSIS/Include/cmsis_gcc.h **** }
 483:Drivers/CMSIS/Include/cmsis_gcc.h **** #endif
 484:Drivers/CMSIS/Include/cmsis_gcc.h **** 
 485:Drivers/CMSIS/Include/cmsis_gcc.h **** 
ARM GAS  C:\Users\21945\AppData\Local\Temp\cc3xKqqk.s 			page 44


 486:Drivers/CMSIS/Include/cmsis_gcc.h **** /**
 487:Drivers/CMSIS/Include/cmsis_gcc.h ****   \brief   Set Base Priority
 488:Drivers/CMSIS/Include/cmsis_gcc.h ****   \details Assigns the given value to the Base Priority register.
 489:Drivers/CMSIS/Include/cmsis_gcc.h ****   \param [in]    basePri  Base Priority value to set
 490:Drivers/CMSIS/Include/cmsis_gcc.h ****  */
 491:Drivers/CMSIS/Include/cmsis_gcc.h **** __STATIC_FORCEINLINE void __set_BASEPRI(uint32_t basePri)
 492:Drivers/CMSIS/Include/cmsis_gcc.h **** {
 493:Drivers/CMSIS/Include/cmsis_gcc.h ****   __ASM volatile ("MSR basepri, %0" : : "r" (basePri) : "memory");
 494:Drivers/CMSIS/Include/cmsis_gcc.h **** }
 495:Drivers/CMSIS/Include/cmsis_gcc.h **** 
 496:Drivers/CMSIS/Include/cmsis_gcc.h **** 
 497:Drivers/CMSIS/Include/cmsis_gcc.h **** #if (defined (__ARM_FEATURE_CMSE ) && (__ARM_FEATURE_CMSE == 3))
 498:Drivers/CMSIS/Include/cmsis_gcc.h **** /**
 499:Drivers/CMSIS/Include/cmsis_gcc.h ****   \brief   Set Base Priority (non-secure)
 500:Drivers/CMSIS/Include/cmsis_gcc.h ****   \details Assigns the given value to the non-secure Base Priority register when in secure state.
 501:Drivers/CMSIS/Include/cmsis_gcc.h ****   \param [in]    basePri  Base Priority value to set
 502:Drivers/CMSIS/Include/cmsis_gcc.h ****  */
 503:Drivers/CMSIS/Include/cmsis_gcc.h **** __STATIC_FORCEINLINE void __TZ_set_BASEPRI_NS(uint32_t basePri)
 504:Drivers/CMSIS/Include/cmsis_gcc.h **** {
 505:Drivers/CMSIS/Include/cmsis_gcc.h ****   __ASM volatile ("MSR basepri_ns, %0" : : "r" (basePri) : "memory");
 506:Drivers/CMSIS/Include/cmsis_gcc.h **** }
 507:Drivers/CMSIS/Include/cmsis_gcc.h **** #endif
 508:Drivers/CMSIS/Include/cmsis_gcc.h **** 
 509:Drivers/CMSIS/Include/cmsis_gcc.h **** 
 510:Drivers/CMSIS/Include/cmsis_gcc.h **** /**
 511:Drivers/CMSIS/Include/cmsis_gcc.h ****   \brief   Set Base Priority with condition
 512:Drivers/CMSIS/Include/cmsis_gcc.h ****   \details Assigns the given value to the Base Priority register only if BASEPRI masking is disable
 513:Drivers/CMSIS/Include/cmsis_gcc.h ****            or the new value increases the BASEPRI priority level.
 514:Drivers/CMSIS/Include/cmsis_gcc.h ****   \param [in]    basePri  Base Priority value to set
 515:Drivers/CMSIS/Include/cmsis_gcc.h ****  */
 516:Drivers/CMSIS/Include/cmsis_gcc.h **** __STATIC_FORCEINLINE void __set_BASEPRI_MAX(uint32_t basePri)
 517:Drivers/CMSIS/Include/cmsis_gcc.h **** {
 518:Drivers/CMSIS/Include/cmsis_gcc.h ****   __ASM volatile ("MSR basepri_max, %0" : : "r" (basePri) : "memory");
 519:Drivers/CMSIS/Include/cmsis_gcc.h **** }
 520:Drivers/CMSIS/Include/cmsis_gcc.h **** 
 521:Drivers/CMSIS/Include/cmsis_gcc.h **** 
 522:Drivers/CMSIS/Include/cmsis_gcc.h **** /**
 523:Drivers/CMSIS/Include/cmsis_gcc.h ****   \brief   Get Fault Mask
 524:Drivers/CMSIS/Include/cmsis_gcc.h ****   \details Returns the current value of the Fault Mask register.
 525:Drivers/CMSIS/Include/cmsis_gcc.h ****   \return               Fault Mask register value
 526:Drivers/CMSIS/Include/cmsis_gcc.h ****  */
 527:Drivers/CMSIS/Include/cmsis_gcc.h **** __STATIC_FORCEINLINE uint32_t __get_FAULTMASK(void)
 528:Drivers/CMSIS/Include/cmsis_gcc.h **** {
 529:Drivers/CMSIS/Include/cmsis_gcc.h ****   uint32_t result;
 530:Drivers/CMSIS/Include/cmsis_gcc.h **** 
 531:Drivers/CMSIS/Include/cmsis_gcc.h ****   __ASM volatile ("MRS %0, faultmask" : "=r" (result) );
 532:Drivers/CMSIS/Include/cmsis_gcc.h ****   return(result);
 533:Drivers/CMSIS/Include/cmsis_gcc.h **** }
 534:Drivers/CMSIS/Include/cmsis_gcc.h **** 
 535:Drivers/CMSIS/Include/cmsis_gcc.h **** 
 536:Drivers/CMSIS/Include/cmsis_gcc.h **** #if (defined (__ARM_FEATURE_CMSE ) && (__ARM_FEATURE_CMSE == 3))
 537:Drivers/CMSIS/Include/cmsis_gcc.h **** /**
 538:Drivers/CMSIS/Include/cmsis_gcc.h ****   \brief   Get Fault Mask (non-secure)
 539:Drivers/CMSIS/Include/cmsis_gcc.h ****   \details Returns the current value of the non-secure Fault Mask register when in secure state.
 540:Drivers/CMSIS/Include/cmsis_gcc.h ****   \return               Fault Mask register value
 541:Drivers/CMSIS/Include/cmsis_gcc.h ****  */
 542:Drivers/CMSIS/Include/cmsis_gcc.h **** __STATIC_FORCEINLINE uint32_t __TZ_get_FAULTMASK_NS(void)
ARM GAS  C:\Users\21945\AppData\Local\Temp\cc3xKqqk.s 			page 45


 543:Drivers/CMSIS/Include/cmsis_gcc.h **** {
 544:Drivers/CMSIS/Include/cmsis_gcc.h ****   uint32_t result;
 545:Drivers/CMSIS/Include/cmsis_gcc.h **** 
 546:Drivers/CMSIS/Include/cmsis_gcc.h ****   __ASM volatile ("MRS %0, faultmask_ns" : "=r" (result) );
 547:Drivers/CMSIS/Include/cmsis_gcc.h ****   return(result);
 548:Drivers/CMSIS/Include/cmsis_gcc.h **** }
 549:Drivers/CMSIS/Include/cmsis_gcc.h **** #endif
 550:Drivers/CMSIS/Include/cmsis_gcc.h **** 
 551:Drivers/CMSIS/Include/cmsis_gcc.h **** 
 552:Drivers/CMSIS/Include/cmsis_gcc.h **** /**
 553:Drivers/CMSIS/Include/cmsis_gcc.h ****   \brief   Set Fault Mask
 554:Drivers/CMSIS/Include/cmsis_gcc.h ****   \details Assigns the given value to the Fault Mask register.
 555:Drivers/CMSIS/Include/cmsis_gcc.h ****   \param [in]    faultMask  Fault Mask value to set
 556:Drivers/CMSIS/Include/cmsis_gcc.h ****  */
 557:Drivers/CMSIS/Include/cmsis_gcc.h **** __STATIC_FORCEINLINE void __set_FAULTMASK(uint32_t faultMask)
 1254              		.loc 2 557 27 view .LVU415
 1255              	.LBB14:
 558:Drivers/CMSIS/Include/cmsis_gcc.h **** {
 559:Drivers/CMSIS/Include/cmsis_gcc.h ****   __ASM volatile ("MSR faultmask, %0" : : "r" (faultMask) : "memory");
 1256              		.loc 2 559 3 view .LVU416
 1257 0040 0123     		movs	r3, #1
 1258              		.syntax unified
 1259              	@ 559 "Drivers/CMSIS/Include/cmsis_gcc.h" 1
 1260 0042 83F31388 		MSR faultmask, r3
 1261              	@ 0 "" 2
 1262              	.LVL67:
 1263              		.loc 2 559 3 is_stmt 0 view .LVU417
 1264              		.thumb
 1265              		.syntax unified
 1266              	.LBE14:
 1267              	.LBE13:
 444:ContrlSys/ctr.c **** 
 1268              		.loc 1 444 3 is_stmt 1 view .LVU418
 1269 0046 FFF7FEFF 		bl	HAL_NVIC_SystemReset
 1270              	.LVL68:
 1271 004a F0E7     		b	.L103
 1272              	.L111:
 456:ContrlSys/ctr.c **** 	{
 457:ContrlSys/ctr.c **** 		case 0:
 458:ContrlSys/ctr.c **** 			ES.state = wait_activate;
 1273              		.loc 1 458 4 view .LVU419
 1274              		.loc 1 458 13 is_stmt 0 view .LVU420
 1275 004c 0F4B     		ldr	r3, .L115+4
 1276 004e 0022     		movs	r2, #0
 1277 0050 83F86420 		strb	r2, [r3, #100]
 459:ContrlSys/ctr.c **** 			break;
 1278              		.loc 1 459 4 is_stmt 1 view .LVU421
 1279              	.L99:
 460:ContrlSys/ctr.c **** 		case 1://第一个灯板被激活
 461:ContrlSys/ctr.c **** 			ES.state = activate_1;
 462:ContrlSys/ctr.c **** 			break;
 463:ContrlSys/ctr.c **** 		case 2://第二个灯板被激活
 464:ContrlSys/ctr.c **** 			ES.state = activate_2;
 465:ContrlSys/ctr.c **** 			break;
 466:ContrlSys/ctr.c **** 		case 3://三
 467:ContrlSys/ctr.c **** 			ES.state = activate_3;
 468:ContrlSys/ctr.c **** 			break;
ARM GAS  C:\Users\21945\AppData\Local\Temp\cc3xKqqk.s 			page 46


 469:ContrlSys/ctr.c **** 		case 4://四
 470:ContrlSys/ctr.c **** 			ES.state = activate_4;
 471:ContrlSys/ctr.c **** 			break;
 472:ContrlSys/ctr.c **** 		case 5://五
 473:ContrlSys/ctr.c **** 			ES.state = success_activate;
 474:ContrlSys/ctr.c **** 			break;
 475:ContrlSys/ctr.c **** 	}
 476:ContrlSys/ctr.c **** }
 1280              		.loc 1 476 1 is_stmt 0 view .LVU422
 1281 0054 08BD     		pop	{r3, pc}
 1282              	.L110:
 461:ContrlSys/ctr.c **** 			break;
 1283              		.loc 1 461 4 is_stmt 1 view .LVU423
 461:ContrlSys/ctr.c **** 			break;
 1284              		.loc 1 461 13 is_stmt 0 view .LVU424
 1285 0056 0D4B     		ldr	r3, .L115+4
 1286 0058 0122     		movs	r2, #1
 1287 005a 83F86420 		strb	r2, [r3, #100]
 462:ContrlSys/ctr.c **** 		case 2://第二个灯板被激活
 1288              		.loc 1 462 4 is_stmt 1 view .LVU425
 1289 005e F9E7     		b	.L99
 1290              	.L109:
 464:ContrlSys/ctr.c **** 			break;
 1291              		.loc 1 464 4 view .LVU426
 464:ContrlSys/ctr.c **** 			break;
 1292              		.loc 1 464 13 is_stmt 0 view .LVU427
 1293 0060 0A4B     		ldr	r3, .L115+4
 1294 0062 0222     		movs	r2, #2
 1295 0064 83F86420 		strb	r2, [r3, #100]
 465:ContrlSys/ctr.c **** 		case 3://三
 1296              		.loc 1 465 4 is_stmt 1 view .LVU428
 1297 0068 F4E7     		b	.L99
 1298              	.L108:
 467:ContrlSys/ctr.c **** 			break;
 1299              		.loc 1 467 4 view .LVU429
 467:ContrlSys/ctr.c **** 			break;
 1300              		.loc 1 467 13 is_stmt 0 view .LVU430
 1301 006a 084B     		ldr	r3, .L115+4
 1302 006c 0322     		movs	r2, #3
 1303 006e 83F86420 		strb	r2, [r3, #100]
 468:ContrlSys/ctr.c **** 		case 4://四
 1304              		.loc 1 468 4 is_stmt 1 view .LVU431
 1305 0072 EFE7     		b	.L99
 1306              	.L107:
 470:ContrlSys/ctr.c **** 			break;
 1307              		.loc 1 470 4 view .LVU432
 470:ContrlSys/ctr.c **** 			break;
 1308              		.loc 1 470 13 is_stmt 0 view .LVU433
 1309 0074 054B     		ldr	r3, .L115+4
 1310 0076 0422     		movs	r2, #4
 1311 0078 83F86420 		strb	r2, [r3, #100]
 471:ContrlSys/ctr.c **** 		case 5://五
 1312              		.loc 1 471 4 is_stmt 1 view .LVU434
 1313 007c EAE7     		b	.L99
 1314              	.L105:
 473:ContrlSys/ctr.c **** 			break;
 1315              		.loc 1 473 4 view .LVU435
ARM GAS  C:\Users\21945\AppData\Local\Temp\cc3xKqqk.s 			page 47


 473:ContrlSys/ctr.c **** 			break;
 1316              		.loc 1 473 13 is_stmt 0 view .LVU436
 1317 007e 034B     		ldr	r3, .L115+4
 1318 0080 0522     		movs	r2, #5
 1319 0082 83F86420 		strb	r2, [r3, #100]
 474:ContrlSys/ctr.c **** 	}
 1320              		.loc 1 474 4 is_stmt 1 view .LVU437
 1321              		.loc 1 476 1 is_stmt 0 view .LVU438
 1322 0086 E5E7     		b	.L99
 1323              	.L116:
 1324              		.align	2
 1325              	.L115:
 1326 0088 00000000 		.word	.LANCHOR2
 1327 008c 00000000 		.word	.LANCHOR0
 1328              		.cfi_endproc
 1329              	.LFE73:
 1331              		.section	.text.Vibra_Detection,"ax",%progbits
 1332              		.align	1
 1333              		.global	Vibra_Detection
 1334              		.syntax unified
 1335              		.thumb
 1336              		.thumb_func
 1338              	Vibra_Detection:
 1339              	.LFB74:
 477:ContrlSys/ctr.c **** 
 478:ContrlSys/ctr.c **** 
 479:ContrlSys/ctr.c **** /*
 480:ContrlSys/ctr.c **** *
 481:ContrlSys/ctr.c **** *振动检测
 482:ContrlSys/ctr.c **** *
 483:ContrlSys/ctr.c **** *
 484:ContrlSys/ctr.c **** **/
 485:ContrlSys/ctr.c **** void Vibra_Detection()
 486:ContrlSys/ctr.c **** {
 1340              		.loc 1 486 1 is_stmt 1 view -0
 1341              		.cfi_startproc
 1342              		@ args = 0, pretend = 0, frame = 0
 1343              		@ frame_needed = 0, uses_anonymous_args = 0
 1344              		@ link register save eliminated.
 487:ContrlSys/ctr.c **** 	if(vibra_flag[0]==1 && ES.Need_hit == 0)
 1345              		.loc 1 487 2 view .LVU440
 1346              		.loc 1 487 15 is_stmt 0 view .LVU441
 1347 0000 204B     		ldr	r3, .L128
 1348 0002 1B68     		ldr	r3, [r3]
 1349              		.loc 1 487 4 view .LVU442
 1350 0004 012B     		cmp	r3, #1
 1351 0006 10D0     		beq	.L123
 1352              	.L118:
 488:ContrlSys/ctr.c **** 	{
 489:ContrlSys/ctr.c **** 		ES.fan[0].mode = 1;
 490:ContrlSys/ctr.c **** 	}
 491:ContrlSys/ctr.c **** 	if(vibra_flag[1]==1 && ES.Need_hit == 1)
 1353              		.loc 1 491 2 is_stmt 1 view .LVU443
 1354              		.loc 1 491 15 is_stmt 0 view .LVU444
 1355 0008 1E4B     		ldr	r3, .L128
 1356 000a 5B68     		ldr	r3, [r3, #4]
 1357              		.loc 1 491 4 view .LVU445
ARM GAS  C:\Users\21945\AppData\Local\Temp\cc3xKqqk.s 			page 48


 1358 000c 012B     		cmp	r3, #1
 1359 000e 15D0     		beq	.L124
 1360              	.L119:
 492:ContrlSys/ctr.c **** 	{
 493:ContrlSys/ctr.c **** 		ES.fan[1].mode = 1;	
 494:ContrlSys/ctr.c **** 	}
 495:ContrlSys/ctr.c **** 	if(vibra_flag[2]==1 && ES.Need_hit == 2)
 1361              		.loc 1 495 2 is_stmt 1 view .LVU446
 1362              		.loc 1 495 15 is_stmt 0 view .LVU447
 1363 0010 1C4B     		ldr	r3, .L128
 1364 0012 9B68     		ldr	r3, [r3, #8]
 1365              		.loc 1 495 4 view .LVU448
 1366 0014 012B     		cmp	r3, #1
 1367 0016 1AD0     		beq	.L125
 1368              	.L120:
 496:ContrlSys/ctr.c **** 	{
 497:ContrlSys/ctr.c **** 		ES.fan[2].mode = 1;	
 498:ContrlSys/ctr.c **** 	}
 499:ContrlSys/ctr.c **** 	if(vibra_flag[3]==1 && ES.Need_hit == 3)
 1369              		.loc 1 499 2 is_stmt 1 view .LVU449
 1370              		.loc 1 499 15 is_stmt 0 view .LVU450
 1371 0018 1A4B     		ldr	r3, .L128
 1372 001a DB68     		ldr	r3, [r3, #12]
 1373              		.loc 1 499 4 view .LVU451
 1374 001c 012B     		cmp	r3, #1
 1375 001e 1FD0     		beq	.L126
 1376              	.L121:
 500:ContrlSys/ctr.c **** 	{
 501:ContrlSys/ctr.c **** 		ES.fan[3].mode = 1;	
 502:ContrlSys/ctr.c **** 	}
 503:ContrlSys/ctr.c **** 	if(vibra_flag[4]==1 && ES.Need_hit == 4)
 1377              		.loc 1 503 2 is_stmt 1 view .LVU452
 1378              		.loc 1 503 15 is_stmt 0 view .LVU453
 1379 0020 184B     		ldr	r3, .L128
 1380 0022 1B69     		ldr	r3, [r3, #16]
 1381              		.loc 1 503 4 view .LVU454
 1382 0024 012B     		cmp	r3, #1
 1383 0026 24D0     		beq	.L127
 1384              	.L117:
 504:ContrlSys/ctr.c **** 	{
 505:ContrlSys/ctr.c **** 		ES.fan[4].mode = 1;	
 506:ContrlSys/ctr.c **** 	}
 507:ContrlSys/ctr.c **** 	
 508:ContrlSys/ctr.c **** }	
 1385              		.loc 1 508 1 view .LVU455
 1386 0028 7047     		bx	lr
 1387              	.L123:
 487:ContrlSys/ctr.c **** 	{
 1388              		.loc 1 487 27 discriminator 1 view .LVU456
 1389 002a 174B     		ldr	r3, .L128+4
 1390 002c 93F86730 		ldrb	r3, [r3, #103]	@ zero_extendqisi2
 487:ContrlSys/ctr.c **** 	{
 1391              		.loc 1 487 22 discriminator 1 view .LVU457
 1392 0030 002B     		cmp	r3, #0
 1393 0032 E9D1     		bne	.L118
 489:ContrlSys/ctr.c **** 	}
 1394              		.loc 1 489 3 is_stmt 1 view .LVU458
ARM GAS  C:\Users\21945\AppData\Local\Temp\cc3xKqqk.s 			page 49


 489:ContrlSys/ctr.c **** 	}
 1395              		.loc 1 489 18 is_stmt 0 view .LVU459
 1396 0034 144B     		ldr	r3, .L128+4
 1397 0036 0122     		movs	r2, #1
 1398 0038 1A60     		str	r2, [r3]
 1399 003a E5E7     		b	.L118
 1400              	.L124:
 491:ContrlSys/ctr.c **** 	{
 1401              		.loc 1 491 27 discriminator 1 view .LVU460
 1402 003c 124B     		ldr	r3, .L128+4
 1403 003e 93F86730 		ldrb	r3, [r3, #103]	@ zero_extendqisi2
 491:ContrlSys/ctr.c **** 	{
 1404              		.loc 1 491 22 discriminator 1 view .LVU461
 1405 0042 012B     		cmp	r3, #1
 1406 0044 E4D1     		bne	.L119
 493:ContrlSys/ctr.c **** 	}
 1407              		.loc 1 493 3 is_stmt 1 view .LVU462
 493:ContrlSys/ctr.c **** 	}
 1408              		.loc 1 493 18 is_stmt 0 view .LVU463
 1409 0046 104B     		ldr	r3, .L128+4
 1410 0048 0122     		movs	r2, #1
 1411 004a 1A61     		str	r2, [r3, #16]
 1412 004c E0E7     		b	.L119
 1413              	.L125:
 495:ContrlSys/ctr.c **** 	{
 1414              		.loc 1 495 27 discriminator 1 view .LVU464
 1415 004e 0E4B     		ldr	r3, .L128+4
 1416 0050 93F86730 		ldrb	r3, [r3, #103]	@ zero_extendqisi2
 495:ContrlSys/ctr.c **** 	{
 1417              		.loc 1 495 22 discriminator 1 view .LVU465
 1418 0054 022B     		cmp	r3, #2
 1419 0056 DFD1     		bne	.L120
 497:ContrlSys/ctr.c **** 	}
 1420              		.loc 1 497 3 is_stmt 1 view .LVU466
 497:ContrlSys/ctr.c **** 	}
 1421              		.loc 1 497 18 is_stmt 0 view .LVU467
 1422 0058 0B4B     		ldr	r3, .L128+4
 1423 005a 0122     		movs	r2, #1
 1424 005c 1A62     		str	r2, [r3, #32]
 1425 005e DBE7     		b	.L120
 1426              	.L126:
 499:ContrlSys/ctr.c **** 	{
 1427              		.loc 1 499 27 discriminator 1 view .LVU468
 1428 0060 094B     		ldr	r3, .L128+4
 1429 0062 93F86730 		ldrb	r3, [r3, #103]	@ zero_extendqisi2
 499:ContrlSys/ctr.c **** 	{
 1430              		.loc 1 499 22 discriminator 1 view .LVU469
 1431 0066 032B     		cmp	r3, #3
 1432 0068 DAD1     		bne	.L121
 501:ContrlSys/ctr.c **** 	}
 1433              		.loc 1 501 3 is_stmt 1 view .LVU470
 501:ContrlSys/ctr.c **** 	}
 1434              		.loc 1 501 18 is_stmt 0 view .LVU471
 1435 006a 074B     		ldr	r3, .L128+4
 1436 006c 0122     		movs	r2, #1
 1437 006e 1A63     		str	r2, [r3, #48]
 1438 0070 D6E7     		b	.L121
ARM GAS  C:\Users\21945\AppData\Local\Temp\cc3xKqqk.s 			page 50


 1439              	.L127:
 503:ContrlSys/ctr.c **** 	{
 1440              		.loc 1 503 27 discriminator 1 view .LVU472
 1441 0072 054B     		ldr	r3, .L128+4
 1442 0074 93F86730 		ldrb	r3, [r3, #103]	@ zero_extendqisi2
 503:ContrlSys/ctr.c **** 	{
 1443              		.loc 1 503 22 discriminator 1 view .LVU473
 1444 0078 042B     		cmp	r3, #4
 1445 007a D5D1     		bne	.L117
 505:ContrlSys/ctr.c **** 	}
 1446              		.loc 1 505 3 is_stmt 1 view .LVU474
 505:ContrlSys/ctr.c **** 	}
 1447              		.loc 1 505 18 is_stmt 0 view .LVU475
 1448 007c 024B     		ldr	r3, .L128+4
 1449 007e 0122     		movs	r2, #1
 1450 0080 1A64     		str	r2, [r3, #64]
 1451              		.loc 1 508 1 view .LVU476
 1452 0082 D1E7     		b	.L117
 1453              	.L129:
 1454              		.align	2
 1455              	.L128:
 1456 0084 00000000 		.word	vibra_flag
 1457 0088 00000000 		.word	.LANCHOR0
 1458              		.cfi_endproc
 1459              	.LFE74:
 1461              		.section	.text.Light_off,"ax",%progbits
 1462              		.align	1
 1463              		.global	Light_off
 1464              		.syntax unified
 1465              		.thumb
 1466              		.thumb_func
 1468              	Light_off:
 1469              	.LFB75:
 509:ContrlSys/ctr.c **** 
 510:ContrlSys/ctr.c **** 
 511:ContrlSys/ctr.c **** /*
 512:ContrlSys/ctr.c **** *关闭灯光
 513:ContrlSys/ctr.c **** *
 514:ContrlSys/ctr.c **** **/
 515:ContrlSys/ctr.c **** void Light_off()
 516:ContrlSys/ctr.c **** {
 1470              		.loc 1 516 1 is_stmt 1 view -0
 1471              		.cfi_startproc
 1472              		@ args = 0, pretend = 0, frame = 0
 1473              		@ frame_needed = 0, uses_anonymous_args = 0
 1474              		@ link register save eliminated.
 517:ContrlSys/ctr.c **** 	uint32_t i,j;
 1475              		.loc 1 517 2 view .LVU478
 518:ContrlSys/ctr.c **** 	for(i=0;i<WS2812B_LED_QUANTITY;i++)
 1476              		.loc 1 518 2 view .LVU479
 1477              	.LVL69:
 1478              		.loc 1 518 7 is_stmt 0 view .LVU480
 1479 0000 0023     		movs	r3, #0
 1480              		.loc 1 518 2 view .LVU481
 1481 0002 04E0     		b	.L131
 1482              	.LVL70:
 1483              	.L132:
ARM GAS  C:\Users\21945\AppData\Local\Temp\cc3xKqqk.s 			page 51


 519:ContrlSys/ctr.c **** 	{
 520:ContrlSys/ctr.c **** 		WS2812B_Buf[i]=0x000000;
 1484              		.loc 1 520 3 is_stmt 1 discriminator 3 view .LVU482
 1485              		.loc 1 520 17 is_stmt 0 discriminator 3 view .LVU483
 1486 0004 1B4A     		ldr	r2, .L149
 1487 0006 0021     		movs	r1, #0
 1488 0008 42F82310 		str	r1, [r2, r3, lsl #2]
 518:ContrlSys/ctr.c **** 	for(i=0;i<WS2812B_LED_QUANTITY;i++)
 1489              		.loc 1 518 33 is_stmt 1 discriminator 3 view .LVU484
 518:ContrlSys/ctr.c **** 	for(i=0;i<WS2812B_LED_QUANTITY;i++)
 1490              		.loc 1 518 34 is_stmt 0 discriminator 3 view .LVU485
 1491 000c 0133     		adds	r3, r3, #1
 1492              	.LVL71:
 1493              	.L131:
 518:ContrlSys/ctr.c **** 	for(i=0;i<WS2812B_LED_QUANTITY;i++)
 1494              		.loc 1 518 10 is_stmt 1 discriminator 1 view .LVU486
 518:ContrlSys/ctr.c **** 	for(i=0;i<WS2812B_LED_QUANTITY;i++)
 1495              		.loc 1 518 2 is_stmt 0 discriminator 1 view .LVU487
 1496 000e AE2B     		cmp	r3, #174
 1497 0010 F8D9     		bls	.L132
 521:ContrlSys/ctr.c **** 	}
 522:ContrlSys/ctr.c **** 	
 523:ContrlSys/ctr.c **** 	
 524:ContrlSys/ctr.c **** 	for(j=0;j<WS2812B_LED_QUANTITY;j++)
 1498              		.loc 1 524 7 view .LVU488
 1499 0012 0021     		movs	r1, #0
 1500 0014 25E0     		b	.L140
 1501              	.LVL72:
 1502              	.L134:
 1503              	.LCFI12:
 1504              		.cfi_def_cfa_offset 4
 1505              		.cfi_offset 4, -4
 525:ContrlSys/ctr.c **** 	{
 526:ContrlSys/ctr.c **** 		for(i=0;i<24;i++)
 527:ContrlSys/ctr.c **** 		{
 528:ContrlSys/ctr.c **** 			if(WS2812B_Buf[j]&(0x800000>>i)){WS2812B_Bit[j*24+i+1]=45;}  //BIT位为1 设置相应的占空比
 529:ContrlSys/ctr.c **** 			else{WS2812B_Bit[j*24+i+1]=25;}
 1506              		.loc 1 529 9 is_stmt 1 view .LVU489
 1507              		.loc 1 529 22 is_stmt 0 view .LVU490
 1508 0016 01EB4100 		add	r0, r1, r1, lsl #1
 1509 001a C200     		lsls	r2, r0, #3
 1510              		.loc 1 529 25 view .LVU491
 1511 001c 1A44     		add	r2, r2, r3
 1512              		.loc 1 529 27 view .LVU492
 1513 001e 0132     		adds	r2, r2, #1
 1514              		.loc 1 529 30 view .LVU493
 1515 0020 1548     		ldr	r0, .L149+4
 1516 0022 1924     		movs	r4, #25
 1517 0024 40F82240 		str	r4, [r0, r2, lsl #2]
 1518              	.L135:
 526:ContrlSys/ctr.c **** 		{
 1519              		.loc 1 526 16 is_stmt 1 discriminator 2 view .LVU494
 526:ContrlSys/ctr.c **** 		{
 1520              		.loc 1 526 17 is_stmt 0 discriminator 2 view .LVU495
 1521 0028 0133     		adds	r3, r3, #1
 1522              	.LVL73:
 1523              	.L137:
ARM GAS  C:\Users\21945\AppData\Local\Temp\cc3xKqqk.s 			page 52


 526:ContrlSys/ctr.c **** 		{
 1524              		.loc 1 526 11 is_stmt 1 discriminator 1 view .LVU496
 526:ContrlSys/ctr.c **** 		{
 1525              		.loc 1 526 3 is_stmt 0 discriminator 1 view .LVU497
 1526 002a 172B     		cmp	r3, #23
 1527 002c 11D8     		bhi	.L145
 1528              	.L136:
 528:ContrlSys/ctr.c **** 			else{WS2812B_Bit[j*24+i+1]=25;}
 1529              		.loc 1 528 4 is_stmt 1 view .LVU498
 528:ContrlSys/ctr.c **** 			else{WS2812B_Bit[j*24+i+1]=25;}
 1530              		.loc 1 528 18 is_stmt 0 view .LVU499
 1531 002e 114A     		ldr	r2, .L149
 1532 0030 52F82100 		ldr	r0, [r2, r1, lsl #2]
 528:ContrlSys/ctr.c **** 			else{WS2812B_Bit[j*24+i+1]=25;}
 1533              		.loc 1 528 31 view .LVU500
 1534 0034 4FF40002 		mov	r2, #8388608
 1535 0038 1A41     		asrs	r2, r2, r3
 528:ContrlSys/ctr.c **** 			else{WS2812B_Bit[j*24+i+1]=25;}
 1536              		.loc 1 528 6 view .LVU501
 1537 003a 1042     		tst	r0, r2
 1538 003c EBD0     		beq	.L134
 528:ContrlSys/ctr.c **** 			else{WS2812B_Bit[j*24+i+1]=25;}
 1539              		.loc 1 528 37 is_stmt 1 discriminator 1 view .LVU502
 528:ContrlSys/ctr.c **** 			else{WS2812B_Bit[j*24+i+1]=25;}
 1540              		.loc 1 528 50 is_stmt 0 discriminator 1 view .LVU503
 1541 003e 01EB4100 		add	r0, r1, r1, lsl #1
 1542 0042 C200     		lsls	r2, r0, #3
 528:ContrlSys/ctr.c **** 			else{WS2812B_Bit[j*24+i+1]=25;}
 1543              		.loc 1 528 53 discriminator 1 view .LVU504
 1544 0044 1A44     		add	r2, r2, r3
 528:ContrlSys/ctr.c **** 			else{WS2812B_Bit[j*24+i+1]=25;}
 1545              		.loc 1 528 55 discriminator 1 view .LVU505
 1546 0046 0132     		adds	r2, r2, #1
 528:ContrlSys/ctr.c **** 			else{WS2812B_Bit[j*24+i+1]=25;}
 1547              		.loc 1 528 58 discriminator 1 view .LVU506
 1548 0048 0B48     		ldr	r0, .L149+4
 1549 004a 2D24     		movs	r4, #45
 1550 004c 40F82240 		str	r4, [r0, r2, lsl #2]
 1551 0050 EAE7     		b	.L135
 1552              	.L145:
 524:ContrlSys/ctr.c **** 	{
 1553              		.loc 1 524 33 is_stmt 1 discriminator 2 view .LVU507
 524:ContrlSys/ctr.c **** 	{
 1554              		.loc 1 524 34 is_stmt 0 discriminator 2 view .LVU508
 1555 0052 0131     		adds	r1, r1, #1
 1556              	.LVL74:
 524:ContrlSys/ctr.c **** 	{
 1557              		.loc 1 524 10 is_stmt 1 discriminator 2 view .LVU509
 524:ContrlSys/ctr.c **** 	{
 1558              		.loc 1 524 2 is_stmt 0 discriminator 2 view .LVU510
 1559 0054 AE29     		cmp	r1, #174
 1560 0056 01D8     		bhi	.L146
 526:ContrlSys/ctr.c **** 		{
 1561              		.loc 1 526 8 view .LVU511
 1562 0058 0023     		movs	r3, #0
 1563              	.LVL75:
 526:ContrlSys/ctr.c **** 		{
ARM GAS  C:\Users\21945\AppData\Local\Temp\cc3xKqqk.s 			page 53


 1564              		.loc 1 526 8 view .LVU512
 1565 005a E6E7     		b	.L137
 1566              	.LVL76:
 1567              	.L146:
 530:ContrlSys/ctr.c **** 		}
 531:ContrlSys/ctr.c **** 	}
 532:ContrlSys/ctr.c **** 	
 533:ContrlSys/ctr.c **** }
 1568              		.loc 1 533 1 view .LVU513
 1569 005c 10BC     		pop	{r4}
 1570              	.LCFI13:
 1571              		.cfi_restore 4
 1572              		.cfi_def_cfa_offset 0
 1573 005e 7047     		bx	lr
 1574              	.L148:
 524:ContrlSys/ctr.c **** 	{
 1575              		.loc 1 524 33 is_stmt 1 view .LVU514
 524:ContrlSys/ctr.c **** 	{
 1576              		.loc 1 524 34 is_stmt 0 view .LVU515
 1577 0060 0131     		adds	r1, r1, #1
 1578              	.LVL77:
 1579              	.L140:
 524:ContrlSys/ctr.c **** 	{
 1580              		.loc 1 524 10 is_stmt 1 view .LVU516
 524:ContrlSys/ctr.c **** 	{
 1581              		.loc 1 524 2 is_stmt 0 view .LVU517
 1582 0062 AE29     		cmp	r1, #174
 1583 0064 04D8     		bhi	.L147
 526:ContrlSys/ctr.c **** 		{
 1584              		.loc 1 526 8 view .LVU518
 1585 0066 0023     		movs	r3, #0
 1586              	.LVL78:
 526:ContrlSys/ctr.c **** 		{
 1587              		.loc 1 526 11 is_stmt 1 view .LVU519
 526:ContrlSys/ctr.c **** 		{
 1588              		.loc 1 526 3 is_stmt 0 view .LVU520
 1589 0068 172B     		cmp	r3, #23
 1590 006a F9D8     		bhi	.L148
 516:ContrlSys/ctr.c **** 	uint32_t i,j;
 1591              		.loc 1 516 1 view .LVU521
 1592 006c 10B4     		push	{r4}
 1593              	.LCFI14:
 1594              		.cfi_def_cfa_offset 4
 1595              		.cfi_offset 4, -4
 1596 006e DEE7     		b	.L136
 1597              	.L147:
 1598              	.LCFI15:
 1599              		.cfi_def_cfa_offset 0
 1600              		.cfi_restore 4
 516:ContrlSys/ctr.c **** 	uint32_t i,j;
 1601              		.loc 1 516 1 view .LVU522
 1602 0070 7047     		bx	lr
 1603              	.L150:
 1604 0072 00BF     		.align	2
 1605              	.L149:
 1606 0074 00000000 		.word	WS2812B_Buf
 1607 0078 00000000 		.word	WS2812B_Bit
ARM GAS  C:\Users\21945\AppData\Local\Temp\cc3xKqqk.s 			page 54


 1608              		.cfi_endproc
 1609              	.LFE75:
 1611              		.section	.text.Light_on,"ax",%progbits
 1612              		.align	1
 1613              		.global	Light_on
 1614              		.syntax unified
 1615              		.thumb
 1616              		.thumb_func
 1618              	Light_on:
 1619              	.LVL79:
 1620              	.LFB76:
 534:ContrlSys/ctr.c **** 
 535:ContrlSys/ctr.c **** /*
 536:ContrlSys/ctr.c **** *灯光全亮
 537:ContrlSys/ctr.c **** *
 538:ContrlSys/ctr.c **** **/
 539:ContrlSys/ctr.c **** void Light_on(int RGB)
 540:ContrlSys/ctr.c **** {
 1621              		.loc 1 540 1 is_stmt 1 view -0
 1622              		.cfi_startproc
 1623              		@ args = 0, pretend = 0, frame = 0
 1624              		@ frame_needed = 0, uses_anonymous_args = 0
 1625              		@ link register save eliminated.
 1626              		.loc 1 540 1 is_stmt 0 view .LVU524
 1627 0000 10B4     		push	{r4}
 1628              	.LCFI16:
 1629              		.cfi_def_cfa_offset 4
 1630              		.cfi_offset 4, -4
 541:ContrlSys/ctr.c **** 	
 542:ContrlSys/ctr.c **** //使用区
 543:ContrlSys/ctr.c **** 	uint32_t i,j;
 1631              		.loc 1 543 2 is_stmt 1 view .LVU525
 544:ContrlSys/ctr.c **** 	for(i=0;i<WS2812B_LED_QUANTITY;i++)
 1632              		.loc 1 544 2 view .LVU526
 1633              	.LVL80:
 1634              		.loc 1 544 7 is_stmt 0 view .LVU527
 1635 0002 0023     		movs	r3, #0
 1636              		.loc 1 544 2 view .LVU528
 1637 0004 03E0     		b	.L152
 1638              	.LVL81:
 1639              	.L153:
 545:ContrlSys/ctr.c **** 	{
 546:ContrlSys/ctr.c **** 		WS2812B_Buf[i]=RGB;
 1640              		.loc 1 546 3 is_stmt 1 discriminator 3 view .LVU529
 1641              		.loc 1 546 17 is_stmt 0 discriminator 3 view .LVU530
 1642 0006 2F4A     		ldr	r2, .L173
 1643 0008 42F82300 		str	r0, [r2, r3, lsl #2]
 544:ContrlSys/ctr.c **** 	for(i=0;i<WS2812B_LED_QUANTITY;i++)
 1644              		.loc 1 544 33 is_stmt 1 discriminator 3 view .LVU531
 544:ContrlSys/ctr.c **** 	for(i=0;i<WS2812B_LED_QUANTITY;i++)
 1645              		.loc 1 544 34 is_stmt 0 discriminator 3 view .LVU532
 1646 000c 0133     		adds	r3, r3, #1
 1647              	.LVL82:
 1648              	.L152:
 544:ContrlSys/ctr.c **** 	for(i=0;i<WS2812B_LED_QUANTITY;i++)
 1649              		.loc 1 544 10 is_stmt 1 discriminator 1 view .LVU533
 544:ContrlSys/ctr.c **** 	for(i=0;i<WS2812B_LED_QUANTITY;i++)
ARM GAS  C:\Users\21945\AppData\Local\Temp\cc3xKqqk.s 			page 55


 1650              		.loc 1 544 2 is_stmt 0 discriminator 1 view .LVU534
 1651 000e AE2B     		cmp	r3, #174
 1652 0010 F9D9     		bls	.L153
 547:ContrlSys/ctr.c **** 	}
 548:ContrlSys/ctr.c **** 	
 549:ContrlSys/ctr.c **** 	for(i=TWO_Number;i<All_Number;i++)
 1653              		.loc 1 549 7 view .LVU535
 1654 0012 40F25113 		movw	r3, #337
 1655              	.LVL83:
 1656              		.loc 1 549 7 view .LVU536
 1657 0016 03E0     		b	.L154
 1658              	.LVL84:
 1659              	.L155:
 550:ContrlSys/ctr.c **** 	{
 551:ContrlSys/ctr.c **** 		WS2812B_Buf[i]=RGB;
 1660              		.loc 1 551 3 is_stmt 1 discriminator 3 view .LVU537
 1661              		.loc 1 551 17 is_stmt 0 discriminator 3 view .LVU538
 1662 0018 2A4A     		ldr	r2, .L173
 1663 001a 42F82300 		str	r0, [r2, r3, lsl #2]
 549:ContrlSys/ctr.c **** 	{
 1664              		.loc 1 549 32 is_stmt 1 discriminator 3 view .LVU539
 549:ContrlSys/ctr.c **** 	{
 1665              		.loc 1 549 33 is_stmt 0 discriminator 3 view .LVU540
 1666 001e 0133     		adds	r3, r3, #1
 1667              	.LVL85:
 1668              	.L154:
 549:ContrlSys/ctr.c **** 	{
 1669              		.loc 1 549 19 is_stmt 1 discriminator 1 view .LVU541
 549:ContrlSys/ctr.c **** 	{
 1670              		.loc 1 549 2 is_stmt 0 discriminator 1 view .LVU542
 1671 0020 B3F5C87F 		cmp	r3, #400
 1672 0024 F8D9     		bls	.L155
 552:ContrlSys/ctr.c **** 	}
 553:ContrlSys/ctr.c **** 	
 554:ContrlSys/ctr.c **** 	for(j=0;j<WS2812B_LED_QUANTITY;j++)
 1673              		.loc 1 554 7 view .LVU543
 1674 0026 0021     		movs	r1, #0
 1675 0028 1EE0     		b	.L156
 1676              	.LVL86:
 1677              	.L157:
 555:ContrlSys/ctr.c **** 	{
 556:ContrlSys/ctr.c **** 		for(i=0;i<24;i++)
 557:ContrlSys/ctr.c **** 		{
 558:ContrlSys/ctr.c **** 			if(WS2812B_Buf[j]&(0x800000>>i)){WS2812B_Bit[j*24+i+1]=45;}  //BIT位为1 设置相应的占空比
 559:ContrlSys/ctr.c **** 			else{WS2812B_Bit[j*24+i+1]=25;}
 1678              		.loc 1 559 9 is_stmt 1 view .LVU544
 1679              		.loc 1 559 22 is_stmt 0 view .LVU545
 1680 002a 01EB4102 		add	r2, r1, r1, lsl #1
 1681              		.loc 1 559 25 view .LVU546
 1682 002e 03EBC202 		add	r2, r3, r2, lsl #3
 1683              		.loc 1 559 27 view .LVU547
 1684 0032 0132     		adds	r2, r2, #1
 1685              		.loc 1 559 30 view .LVU548
 1686 0034 2448     		ldr	r0, .L173+4
 1687 0036 1924     		movs	r4, #25
 1688 0038 40F82240 		str	r4, [r0, r2, lsl #2]
 1689              	.L158:
ARM GAS  C:\Users\21945\AppData\Local\Temp\cc3xKqqk.s 			page 56


 556:ContrlSys/ctr.c **** 		{
 1690              		.loc 1 556 16 is_stmt 1 discriminator 2 view .LVU549
 556:ContrlSys/ctr.c **** 		{
 1691              		.loc 1 556 17 is_stmt 0 discriminator 2 view .LVU550
 1692 003c 0133     		adds	r3, r3, #1
 1693              	.LVL87:
 1694              	.L160:
 556:ContrlSys/ctr.c **** 		{
 1695              		.loc 1 556 11 is_stmt 1 discriminator 1 view .LVU551
 556:ContrlSys/ctr.c **** 		{
 1696              		.loc 1 556 3 is_stmt 0 discriminator 1 view .LVU552
 1697 003e 172B     		cmp	r3, #23
 1698 0040 11D8     		bhi	.L169
 558:ContrlSys/ctr.c **** 			else{WS2812B_Bit[j*24+i+1]=25;}
 1699              		.loc 1 558 4 is_stmt 1 view .LVU553
 558:ContrlSys/ctr.c **** 			else{WS2812B_Bit[j*24+i+1]=25;}
 1700              		.loc 1 558 18 is_stmt 0 view .LVU554
 1701 0042 204A     		ldr	r2, .L173
 1702 0044 52F82100 		ldr	r0, [r2, r1, lsl #2]
 558:ContrlSys/ctr.c **** 			else{WS2812B_Bit[j*24+i+1]=25;}
 1703              		.loc 1 558 31 view .LVU555
 1704 0048 4FF40002 		mov	r2, #8388608
 1705 004c 1A41     		asrs	r2, r2, r3
 558:ContrlSys/ctr.c **** 			else{WS2812B_Bit[j*24+i+1]=25;}
 1706              		.loc 1 558 6 view .LVU556
 1707 004e 1042     		tst	r0, r2
 1708 0050 EBD0     		beq	.L157
 558:ContrlSys/ctr.c **** 			else{WS2812B_Bit[j*24+i+1]=25;}
 1709              		.loc 1 558 37 is_stmt 1 discriminator 1 view .LVU557
 558:ContrlSys/ctr.c **** 			else{WS2812B_Bit[j*24+i+1]=25;}
 1710              		.loc 1 558 50 is_stmt 0 discriminator 1 view .LVU558
 1711 0052 01EB4102 		add	r2, r1, r1, lsl #1
 558:ContrlSys/ctr.c **** 			else{WS2812B_Bit[j*24+i+1]=25;}
 1712              		.loc 1 558 53 discriminator 1 view .LVU559
 1713 0056 03EBC202 		add	r2, r3, r2, lsl #3
 558:ContrlSys/ctr.c **** 			else{WS2812B_Bit[j*24+i+1]=25;}
 1714              		.loc 1 558 55 discriminator 1 view .LVU560
 1715 005a 0132     		adds	r2, r2, #1
 558:ContrlSys/ctr.c **** 			else{WS2812B_Bit[j*24+i+1]=25;}
 1716              		.loc 1 558 58 discriminator 1 view .LVU561
 1717 005c 1A48     		ldr	r0, .L173+4
 1718 005e 2D24     		movs	r4, #45
 1719 0060 40F82240 		str	r4, [r0, r2, lsl #2]
 1720 0064 EAE7     		b	.L158
 1721              	.L169:
 554:ContrlSys/ctr.c **** 	{
 1722              		.loc 1 554 33 is_stmt 1 discriminator 2 view .LVU562
 554:ContrlSys/ctr.c **** 	{
 1723              		.loc 1 554 34 is_stmt 0 discriminator 2 view .LVU563
 1724 0066 0131     		adds	r1, r1, #1
 1725              	.LVL88:
 1726              	.L156:
 554:ContrlSys/ctr.c **** 	{
 1727              		.loc 1 554 10 is_stmt 1 discriminator 1 view .LVU564
 554:ContrlSys/ctr.c **** 	{
 1728              		.loc 1 554 2 is_stmt 0 discriminator 1 view .LVU565
 1729 0068 AE29     		cmp	r1, #174
ARM GAS  C:\Users\21945\AppData\Local\Temp\cc3xKqqk.s 			page 57


 1730 006a 01D8     		bhi	.L170
 556:ContrlSys/ctr.c **** 		{
 1731              		.loc 1 556 8 view .LVU566
 1732 006c 0023     		movs	r3, #0
 1733              	.LVL89:
 556:ContrlSys/ctr.c **** 		{
 1734              		.loc 1 556 8 view .LVU567
 1735 006e E6E7     		b	.L160
 1736              	.LVL90:
 1737              	.L170:
 560:ContrlSys/ctr.c **** 		}
 561:ContrlSys/ctr.c **** 	}
 562:ContrlSys/ctr.c **** 		
 563:ContrlSys/ctr.c **** 	for(j=TWO_Number;j<All_Number;j++)
 1738              		.loc 1 563 7 view .LVU568
 1739 0070 40F25111 		movw	r1, #337
 1740              	.LVL91:
 1741              		.loc 1 563 7 view .LVU569
 1742 0074 1EE0     		b	.L161
 1743              	.LVL92:
 1744              	.L162:
 564:ContrlSys/ctr.c **** 	{
 565:ContrlSys/ctr.c **** 		for(i=0;i<24;i++)
 566:ContrlSys/ctr.c **** 		{
 567:ContrlSys/ctr.c **** 			if(WS2812B_Buf[j]&(0x800000>>i)){WS2812B_Bit[j*24+i+1]=45;}  //BIT位为1 设置相应的占空比
 568:ContrlSys/ctr.c **** 			else{WS2812B_Bit[j*24+i+1]=25;}
 1745              		.loc 1 568 9 is_stmt 1 view .LVU570
 1746              		.loc 1 568 22 is_stmt 0 view .LVU571
 1747 0076 01EB4102 		add	r2, r1, r1, lsl #1
 1748              		.loc 1 568 25 view .LVU572
 1749 007a 03EBC202 		add	r2, r3, r2, lsl #3
 1750              		.loc 1 568 27 view .LVU573
 1751 007e 0132     		adds	r2, r2, #1
 1752              		.loc 1 568 30 view .LVU574
 1753 0080 1148     		ldr	r0, .L173+4
 1754 0082 1924     		movs	r4, #25
 1755 0084 40F82240 		str	r4, [r0, r2, lsl #2]
 1756              	.L163:
 565:ContrlSys/ctr.c **** 		{
 1757              		.loc 1 565 16 is_stmt 1 discriminator 2 view .LVU575
 565:ContrlSys/ctr.c **** 		{
 1758              		.loc 1 565 17 is_stmt 0 discriminator 2 view .LVU576
 1759 0088 0133     		adds	r3, r3, #1
 1760              	.LVL93:
 1761              	.L165:
 565:ContrlSys/ctr.c **** 		{
 1762              		.loc 1 565 11 is_stmt 1 discriminator 1 view .LVU577
 565:ContrlSys/ctr.c **** 		{
 1763              		.loc 1 565 3 is_stmt 0 discriminator 1 view .LVU578
 1764 008a 172B     		cmp	r3, #23
 1765 008c 11D8     		bhi	.L171
 567:ContrlSys/ctr.c **** 			else{WS2812B_Bit[j*24+i+1]=25;}
 1766              		.loc 1 567 4 is_stmt 1 view .LVU579
 567:ContrlSys/ctr.c **** 			else{WS2812B_Bit[j*24+i+1]=25;}
 1767              		.loc 1 567 18 is_stmt 0 view .LVU580
 1768 008e 0D4A     		ldr	r2, .L173
 1769 0090 52F82100 		ldr	r0, [r2, r1, lsl #2]
ARM GAS  C:\Users\21945\AppData\Local\Temp\cc3xKqqk.s 			page 58


 567:ContrlSys/ctr.c **** 			else{WS2812B_Bit[j*24+i+1]=25;}
 1770              		.loc 1 567 31 view .LVU581
 1771 0094 4FF40002 		mov	r2, #8388608
 1772 0098 1A41     		asrs	r2, r2, r3
 567:ContrlSys/ctr.c **** 			else{WS2812B_Bit[j*24+i+1]=25;}
 1773              		.loc 1 567 6 view .LVU582
 1774 009a 1042     		tst	r0, r2
 1775 009c EBD0     		beq	.L162
 567:ContrlSys/ctr.c **** 			else{WS2812B_Bit[j*24+i+1]=25;}
 1776              		.loc 1 567 37 is_stmt 1 discriminator 1 view .LVU583
 567:ContrlSys/ctr.c **** 			else{WS2812B_Bit[j*24+i+1]=25;}
 1777              		.loc 1 567 50 is_stmt 0 discriminator 1 view .LVU584
 1778 009e 01EB4102 		add	r2, r1, r1, lsl #1
 567:ContrlSys/ctr.c **** 			else{WS2812B_Bit[j*24+i+1]=25;}
 1779              		.loc 1 567 53 discriminator 1 view .LVU585
 1780 00a2 03EBC202 		add	r2, r3, r2, lsl #3
 567:ContrlSys/ctr.c **** 			else{WS2812B_Bit[j*24+i+1]=25;}
 1781              		.loc 1 567 55 discriminator 1 view .LVU586
 1782 00a6 0132     		adds	r2, r2, #1
 567:ContrlSys/ctr.c **** 			else{WS2812B_Bit[j*24+i+1]=25;}
 1783              		.loc 1 567 58 discriminator 1 view .LVU587
 1784 00a8 0748     		ldr	r0, .L173+4
 1785 00aa 2D24     		movs	r4, #45
 1786 00ac 40F82240 		str	r4, [r0, r2, lsl #2]
 1787 00b0 EAE7     		b	.L163
 1788              	.L171:
 563:ContrlSys/ctr.c **** 	{
 1789              		.loc 1 563 32 is_stmt 1 discriminator 2 view .LVU588
 563:ContrlSys/ctr.c **** 	{
 1790              		.loc 1 563 33 is_stmt 0 discriminator 2 view .LVU589
 1791 00b2 0131     		adds	r1, r1, #1
 1792              	.LVL94:
 1793              	.L161:
 563:ContrlSys/ctr.c **** 	{
 1794              		.loc 1 563 19 is_stmt 1 discriminator 1 view .LVU590
 563:ContrlSys/ctr.c **** 	{
 1795              		.loc 1 563 2 is_stmt 0 discriminator 1 view .LVU591
 1796 00b4 B1F5C87F 		cmp	r1, #400
 1797 00b8 01D8     		bhi	.L172
 565:ContrlSys/ctr.c **** 		{
 1798              		.loc 1 565 8 view .LVU592
 1799 00ba 0023     		movs	r3, #0
 1800              	.LVL95:
 565:ContrlSys/ctr.c **** 		{
 1801              		.loc 1 565 8 view .LVU593
 1802 00bc E5E7     		b	.L165
 1803              	.LVL96:
 1804              	.L172:
 569:ContrlSys/ctr.c **** 		}
 570:ContrlSys/ctr.c **** 	}
 571:ContrlSys/ctr.c **** }
 1805              		.loc 1 571 1 view .LVU594
 1806 00be 10BC     		pop	{r4}
 1807              	.LCFI17:
 1808              		.cfi_restore 4
 1809              		.cfi_def_cfa_offset 0
 1810 00c0 7047     		bx	lr
ARM GAS  C:\Users\21945\AppData\Local\Temp\cc3xKqqk.s 			page 59


 1811              	.L174:
 1812 00c2 00BF     		.align	2
 1813              	.L173:
 1814 00c4 00000000 		.word	WS2812B_Buf
 1815 00c8 00000000 		.word	WS2812B_Bit
 1816              		.cfi_endproc
 1817              	.LFE76:
 1819              		.section	.text.Light_flow,"ax",%progbits
 1820              		.align	1
 1821              		.global	Light_flow
 1822              		.syntax unified
 1823              		.thumb
 1824              		.thumb_func
 1826              	Light_flow:
 1827              	.LVL97:
 1828              	.LFB77:
 572:ContrlSys/ctr.c **** //////
 573:ContrlSys/ctr.c **** 	
 574:ContrlSys/ctr.c **** 
 575:ContrlSys/ctr.c **** 
 576:ContrlSys/ctr.c **** /*
 577:ContrlSys/ctr.c **** *一级流水灯
 578:ContrlSys/ctr.c **** *
 579:ContrlSys/ctr.c **** **/
 580:ContrlSys/ctr.c **** void Light_flow(int s,int RGB)
 581:ContrlSys/ctr.c **** {
 1829              		.loc 1 581 1 is_stmt 1 view -0
 1830              		.cfi_startproc
 1831              		@ args = 0, pretend = 0, frame = 0
 1832              		@ frame_needed = 0, uses_anonymous_args = 0
 1833              		.loc 1 581 1 is_stmt 0 view .LVU596
 1834 0000 38B5     		push	{r3, r4, r5, lr}
 1835              	.LCFI18:
 1836              		.cfi_def_cfa_offset 16
 1837              		.cfi_offset 3, -16
 1838              		.cfi_offset 4, -12
 1839              		.cfi_offset 5, -8
 1840              		.cfi_offset 14, -4
 1841 0002 0446     		mov	r4, r0
 1842 0004 0D46     		mov	r5, r1
 582:ContrlSys/ctr.c **** 	uint32_t i,j;
 1843              		.loc 1 582 2 is_stmt 1 view .LVU597
 583:ContrlSys/ctr.c **** 	Arror(0,s,RGB);
 1844              		.loc 1 583 2 view .LVU598
 1845 0006 0A46     		mov	r2, r1
 1846 0008 0146     		mov	r1, r0
 1847              	.LVL98:
 1848              		.loc 1 583 2 is_stmt 0 view .LVU599
 1849 000a 0020     		movs	r0, #0
 1850              	.LVL99:
 1851              		.loc 1 583 2 view .LVU600
 1852 000c FFF7FEFF 		bl	Arror
 1853              	.LVL100:
 584:ContrlSys/ctr.c **** 	Arror(5,s,RGB);
 1854              		.loc 1 584 2 is_stmt 1 view .LVU601
 1855 0010 2A46     		mov	r2, r5
 1856 0012 2146     		mov	r1, r4
ARM GAS  C:\Users\21945\AppData\Local\Temp\cc3xKqqk.s 			page 60


 1857 0014 0520     		movs	r0, #5
 1858 0016 FFF7FEFF 		bl	Arror
 1859              	.LVL101:
 585:ContrlSys/ctr.c **** 	Arror(10,s,RGB);
 1860              		.loc 1 585 2 view .LVU602
 1861 001a 2A46     		mov	r2, r5
 1862 001c 2146     		mov	r1, r4
 1863 001e 0A20     		movs	r0, #10
 1864 0020 FFF7FEFF 		bl	Arror
 1865              	.LVL102:
 586:ContrlSys/ctr.c **** 	Arror(15,s,RGB);
 1866              		.loc 1 586 2 view .LVU603
 1867 0024 2A46     		mov	r2, r5
 1868 0026 2146     		mov	r1, r4
 1869 0028 0F20     		movs	r0, #15
 1870 002a FFF7FEFF 		bl	Arror
 1871              	.LVL103:
 587:ContrlSys/ctr.c **** 	Arror(20,s,RGB);
 1872              		.loc 1 587 2 view .LVU604
 1873 002e 2A46     		mov	r2, r5
 1874 0030 2146     		mov	r1, r4
 1875 0032 1420     		movs	r0, #20
 1876 0034 FFF7FEFF 		bl	Arror
 1877              	.LVL104:
 588:ContrlSys/ctr.c **** 	Arror(25,s,RGB);
 1878              		.loc 1 588 2 view .LVU605
 1879 0038 2A46     		mov	r2, r5
 1880 003a 2146     		mov	r1, r4
 1881 003c 1920     		movs	r0, #25
 1882 003e FFF7FEFF 		bl	Arror
 1883              	.LVL105:
 589:ContrlSys/ctr.c **** 	Arror(30,s,RGB);	
 1884              		.loc 1 589 2 view .LVU606
 1885 0042 2A46     		mov	r2, r5
 1886 0044 2146     		mov	r1, r4
 1887 0046 1E20     		movs	r0, #30
 1888 0048 FFF7FEFF 		bl	Arror
 1889              	.LVL106:
 590:ContrlSys/ctr.c **** 	
 591:ContrlSys/ctr.c **** 	for(j=0;j<WS2812B_LED_QUANTITY;j++)
 1890              		.loc 1 591 2 view .LVU607
 1891              		.loc 1 591 7 is_stmt 0 view .LVU608
 1892 004c 0021     		movs	r1, #0
 1893              		.loc 1 591 2 view .LVU609
 1894 004e 1EE0     		b	.L176
 1895              	.LVL107:
 1896              	.L177:
 592:ContrlSys/ctr.c **** 	{
 593:ContrlSys/ctr.c **** 		for(i=0;i<24;i++)
 594:ContrlSys/ctr.c **** 		{
 595:ContrlSys/ctr.c **** 			if(WS2812B_Buf[j]&(0x800000>>i)){WS2812B_Bit[j*24+i+1]=45;}  //BIT位为1 设置相应的占空比
 596:ContrlSys/ctr.c **** 			else{WS2812B_Bit[j*24+i+1]=25;}
 1897              		.loc 1 596 9 is_stmt 1 view .LVU610
 1898              		.loc 1 596 22 is_stmt 0 view .LVU611
 1899 0050 01EB4102 		add	r2, r1, r1, lsl #1
 1900              		.loc 1 596 25 view .LVU612
 1901 0054 03EBC202 		add	r2, r3, r2, lsl #3
ARM GAS  C:\Users\21945\AppData\Local\Temp\cc3xKqqk.s 			page 61


 1902              		.loc 1 596 27 view .LVU613
 1903 0058 0132     		adds	r2, r2, #1
 1904              		.loc 1 596 30 view .LVU614
 1905 005a 0F48     		ldr	r0, .L185
 1906 005c 1924     		movs	r4, #25
 1907 005e 40F82240 		str	r4, [r0, r2, lsl #2]
 1908              	.L178:
 593:ContrlSys/ctr.c **** 		{
 1909              		.loc 1 593 16 is_stmt 1 discriminator 2 view .LVU615
 593:ContrlSys/ctr.c **** 		{
 1910              		.loc 1 593 17 is_stmt 0 discriminator 2 view .LVU616
 1911 0062 0133     		adds	r3, r3, #1
 1912              	.LVL108:
 1913              	.L180:
 593:ContrlSys/ctr.c **** 		{
 1914              		.loc 1 593 11 is_stmt 1 discriminator 1 view .LVU617
 593:ContrlSys/ctr.c **** 		{
 1915              		.loc 1 593 3 is_stmt 0 discriminator 1 view .LVU618
 1916 0064 172B     		cmp	r3, #23
 1917 0066 11D8     		bhi	.L183
 595:ContrlSys/ctr.c **** 			else{WS2812B_Bit[j*24+i+1]=25;}
 1918              		.loc 1 595 4 is_stmt 1 view .LVU619
 595:ContrlSys/ctr.c **** 			else{WS2812B_Bit[j*24+i+1]=25;}
 1919              		.loc 1 595 18 is_stmt 0 view .LVU620
 1920 0068 0C4A     		ldr	r2, .L185+4
 1921 006a 52F82100 		ldr	r0, [r2, r1, lsl #2]
 595:ContrlSys/ctr.c **** 			else{WS2812B_Bit[j*24+i+1]=25;}
 1922              		.loc 1 595 31 view .LVU621
 1923 006e 4FF40002 		mov	r2, #8388608
 1924 0072 1A41     		asrs	r2, r2, r3
 595:ContrlSys/ctr.c **** 			else{WS2812B_Bit[j*24+i+1]=25;}
 1925              		.loc 1 595 6 view .LVU622
 1926 0074 1042     		tst	r0, r2
 1927 0076 EBD0     		beq	.L177
 595:ContrlSys/ctr.c **** 			else{WS2812B_Bit[j*24+i+1]=25;}
 1928              		.loc 1 595 37 is_stmt 1 discriminator 1 view .LVU623
 595:ContrlSys/ctr.c **** 			else{WS2812B_Bit[j*24+i+1]=25;}
 1929              		.loc 1 595 50 is_stmt 0 discriminator 1 view .LVU624
 1930 0078 01EB4102 		add	r2, r1, r1, lsl #1
 595:ContrlSys/ctr.c **** 			else{WS2812B_Bit[j*24+i+1]=25;}
 1931              		.loc 1 595 53 discriminator 1 view .LVU625
 1932 007c 03EBC202 		add	r2, r3, r2, lsl #3
 595:ContrlSys/ctr.c **** 			else{WS2812B_Bit[j*24+i+1]=25;}
 1933              		.loc 1 595 55 discriminator 1 view .LVU626
 1934 0080 0132     		adds	r2, r2, #1
 595:ContrlSys/ctr.c **** 			else{WS2812B_Bit[j*24+i+1]=25;}
 1935              		.loc 1 595 58 discriminator 1 view .LVU627
 1936 0082 0548     		ldr	r0, .L185
 1937 0084 2D24     		movs	r4, #45
 1938 0086 40F82240 		str	r4, [r0, r2, lsl #2]
 1939 008a EAE7     		b	.L178
 1940              	.L183:
 591:ContrlSys/ctr.c **** 	{
 1941              		.loc 1 591 33 is_stmt 1 discriminator 2 view .LVU628
 591:ContrlSys/ctr.c **** 	{
 1942              		.loc 1 591 34 is_stmt 0 discriminator 2 view .LVU629
 1943 008c 0131     		adds	r1, r1, #1
ARM GAS  C:\Users\21945\AppData\Local\Temp\cc3xKqqk.s 			page 62


 1944              	.LVL109:
 1945              	.L176:
 591:ContrlSys/ctr.c **** 	{
 1946              		.loc 1 591 10 is_stmt 1 discriminator 1 view .LVU630
 591:ContrlSys/ctr.c **** 	{
 1947              		.loc 1 591 2 is_stmt 0 discriminator 1 view .LVU631
 1948 008e AE29     		cmp	r1, #174
 1949 0090 01D8     		bhi	.L184
 593:ContrlSys/ctr.c **** 		{
 1950              		.loc 1 593 8 view .LVU632
 1951 0092 0023     		movs	r3, #0
 1952 0094 E6E7     		b	.L180
 1953              	.L184:
 597:ContrlSys/ctr.c **** 		}
 598:ContrlSys/ctr.c **** 	}
 599:ContrlSys/ctr.c **** }
 1954              		.loc 1 599 1 view .LVU633
 1955 0096 38BD     		pop	{r3, r4, r5, pc}
 1956              	.LVL110:
 1957              	.L186:
 1958              		.loc 1 599 1 view .LVU634
 1959              		.align	2
 1960              	.L185:
 1961 0098 00000000 		.word	WS2812B_Bit
 1962 009c 00000000 		.word	WS2812B_Buf
 1963              		.cfi_endproc
 1964              	.LFE77:
 1966              		.section	.text.Light_flow2,"ax",%progbits
 1967              		.align	1
 1968              		.global	Light_flow2
 1969              		.syntax unified
 1970              		.thumb
 1971              		.thumb_func
 1973              	Light_flow2:
 1974              	.LVL111:
 1975              	.LFB78:
 600:ContrlSys/ctr.c **** 
 601:ContrlSys/ctr.c **** /*
 602:ContrlSys/ctr.c **** *二级流水灯
 603:ContrlSys/ctr.c **** *
 604:ContrlSys/ctr.c **** *
 605:ContrlSys/ctr.c **** **/
 606:ContrlSys/ctr.c **** void Light_flow2(int s,int RGB)
 607:ContrlSys/ctr.c **** {
 1976              		.loc 1 607 1 is_stmt 1 view -0
 1977              		.cfi_startproc
 1978              		@ args = 0, pretend = 0, frame = 0
 1979              		@ frame_needed = 0, uses_anonymous_args = 0
 1980              		.loc 1 607 1 is_stmt 0 view .LVU636
 1981 0000 38B5     		push	{r3, r4, r5, lr}
 1982              	.LCFI19:
 1983              		.cfi_def_cfa_offset 16
 1984              		.cfi_offset 3, -16
 1985              		.cfi_offset 4, -12
 1986              		.cfi_offset 5, -8
 1987              		.cfi_offset 14, -4
 1988 0002 0446     		mov	r4, r0
ARM GAS  C:\Users\21945\AppData\Local\Temp\cc3xKqqk.s 			page 63


 1989 0004 0D46     		mov	r5, r1
 608:ContrlSys/ctr.c **** uint32_t i,j;
 1990              		.loc 1 608 1 is_stmt 1 view .LVU637
 609:ContrlSys/ctr.c **** 	Arror(2,s,RGB);
 1991              		.loc 1 609 2 view .LVU638
 1992 0006 0A46     		mov	r2, r1
 1993 0008 0146     		mov	r1, r0
 1994              	.LVL112:
 1995              		.loc 1 609 2 is_stmt 0 view .LVU639
 1996 000a 0220     		movs	r0, #2
 1997              	.LVL113:
 1998              		.loc 1 609 2 view .LVU640
 1999 000c FFF7FEFF 		bl	Arror
 2000              	.LVL114:
 610:ContrlSys/ctr.c **** 	Arror(7,s,RGB);
 2001              		.loc 1 610 2 is_stmt 1 view .LVU641
 2002 0010 2A46     		mov	r2, r5
 2003 0012 2146     		mov	r1, r4
 2004 0014 0720     		movs	r0, #7
 2005 0016 FFF7FEFF 		bl	Arror
 2006              	.LVL115:
 611:ContrlSys/ctr.c **** 	Arror(12,s,RGB);
 2007              		.loc 1 611 2 view .LVU642
 2008 001a 2A46     		mov	r2, r5
 2009 001c 2146     		mov	r1, r4
 2010 001e 0C20     		movs	r0, #12
 2011 0020 FFF7FEFF 		bl	Arror
 2012              	.LVL116:
 612:ContrlSys/ctr.c **** 	Arror(17,s,RGB);
 2013              		.loc 1 612 2 view .LVU643
 2014 0024 2A46     		mov	r2, r5
 2015 0026 2146     		mov	r1, r4
 2016 0028 1120     		movs	r0, #17
 2017 002a FFF7FEFF 		bl	Arror
 2018              	.LVL117:
 613:ContrlSys/ctr.c **** 	Arror(22,s,RGB);
 2019              		.loc 1 613 2 view .LVU644
 2020 002e 2A46     		mov	r2, r5
 2021 0030 2146     		mov	r1, r4
 2022 0032 1620     		movs	r0, #22
 2023 0034 FFF7FEFF 		bl	Arror
 2024              	.LVL118:
 614:ContrlSys/ctr.c **** 	Arror(27,s,RGB);
 2025              		.loc 1 614 2 view .LVU645
 2026 0038 2A46     		mov	r2, r5
 2027 003a 2146     		mov	r1, r4
 2028 003c 1B20     		movs	r0, #27
 2029 003e FFF7FEFF 		bl	Arror
 2030              	.LVL119:
 615:ContrlSys/ctr.c **** 	Arror(32,s,RGB);	
 2031              		.loc 1 615 2 view .LVU646
 2032 0042 2A46     		mov	r2, r5
 2033 0044 2146     		mov	r1, r4
 2034 0046 2020     		movs	r0, #32
 2035 0048 FFF7FEFF 		bl	Arror
 2036              	.LVL120:
 616:ContrlSys/ctr.c **** 	
ARM GAS  C:\Users\21945\AppData\Local\Temp\cc3xKqqk.s 			page 64


 617:ContrlSys/ctr.c **** 	for(j=0;j<WS2812B_LED_QUANTITY;j++)
 2037              		.loc 1 617 2 view .LVU647
 2038              		.loc 1 617 7 is_stmt 0 view .LVU648
 2039 004c 0021     		movs	r1, #0
 2040              		.loc 1 617 2 view .LVU649
 2041 004e 1EE0     		b	.L188
 2042              	.LVL121:
 2043              	.L189:
 618:ContrlSys/ctr.c **** 	{
 619:ContrlSys/ctr.c **** 		for(i=0;i<24;i++)
 620:ContrlSys/ctr.c **** 		{
 621:ContrlSys/ctr.c **** 			if(WS2812B_Buf[j]&(0x800000>>i)){WS2812B_Bit[j*24+i+1]=45;}  //BIT位为1 设置相应的占空比
 622:ContrlSys/ctr.c **** 			else{WS2812B_Bit[j*24+i+1]=25;}
 2044              		.loc 1 622 9 is_stmt 1 view .LVU650
 2045              		.loc 1 622 22 is_stmt 0 view .LVU651
 2046 0050 01EB4102 		add	r2, r1, r1, lsl #1
 2047              		.loc 1 622 25 view .LVU652
 2048 0054 03EBC202 		add	r2, r3, r2, lsl #3
 2049              		.loc 1 622 27 view .LVU653
 2050 0058 0132     		adds	r2, r2, #1
 2051              		.loc 1 622 30 view .LVU654
 2052 005a 0F48     		ldr	r0, .L197
 2053 005c 1924     		movs	r4, #25
 2054 005e 40F82240 		str	r4, [r0, r2, lsl #2]
 2055              	.L190:
 619:ContrlSys/ctr.c **** 		{
 2056              		.loc 1 619 16 is_stmt 1 discriminator 2 view .LVU655
 619:ContrlSys/ctr.c **** 		{
 2057              		.loc 1 619 17 is_stmt 0 discriminator 2 view .LVU656
 2058 0062 0133     		adds	r3, r3, #1
 2059              	.LVL122:
 2060              	.L192:
 619:ContrlSys/ctr.c **** 		{
 2061              		.loc 1 619 11 is_stmt 1 discriminator 1 view .LVU657
 619:ContrlSys/ctr.c **** 		{
 2062              		.loc 1 619 3 is_stmt 0 discriminator 1 view .LVU658
 2063 0064 172B     		cmp	r3, #23
 2064 0066 11D8     		bhi	.L195
 621:ContrlSys/ctr.c **** 			else{WS2812B_Bit[j*24+i+1]=25;}
 2065              		.loc 1 621 4 is_stmt 1 view .LVU659
 621:ContrlSys/ctr.c **** 			else{WS2812B_Bit[j*24+i+1]=25;}
 2066              		.loc 1 621 18 is_stmt 0 view .LVU660
 2067 0068 0C4A     		ldr	r2, .L197+4
 2068 006a 52F82100 		ldr	r0, [r2, r1, lsl #2]
 621:ContrlSys/ctr.c **** 			else{WS2812B_Bit[j*24+i+1]=25;}
 2069              		.loc 1 621 31 view .LVU661
 2070 006e 4FF40002 		mov	r2, #8388608
 2071 0072 1A41     		asrs	r2, r2, r3
 621:ContrlSys/ctr.c **** 			else{WS2812B_Bit[j*24+i+1]=25;}
 2072              		.loc 1 621 6 view .LVU662
 2073 0074 1042     		tst	r0, r2
 2074 0076 EBD0     		beq	.L189
 621:ContrlSys/ctr.c **** 			else{WS2812B_Bit[j*24+i+1]=25;}
 2075              		.loc 1 621 37 is_stmt 1 discriminator 1 view .LVU663
 621:ContrlSys/ctr.c **** 			else{WS2812B_Bit[j*24+i+1]=25;}
 2076              		.loc 1 621 50 is_stmt 0 discriminator 1 view .LVU664
 2077 0078 01EB4102 		add	r2, r1, r1, lsl #1
ARM GAS  C:\Users\21945\AppData\Local\Temp\cc3xKqqk.s 			page 65


 621:ContrlSys/ctr.c **** 			else{WS2812B_Bit[j*24+i+1]=25;}
 2078              		.loc 1 621 53 discriminator 1 view .LVU665
 2079 007c 03EBC202 		add	r2, r3, r2, lsl #3
 621:ContrlSys/ctr.c **** 			else{WS2812B_Bit[j*24+i+1]=25;}
 2080              		.loc 1 621 55 discriminator 1 view .LVU666
 2081 0080 0132     		adds	r2, r2, #1
 621:ContrlSys/ctr.c **** 			else{WS2812B_Bit[j*24+i+1]=25;}
 2082              		.loc 1 621 58 discriminator 1 view .LVU667
 2083 0082 0548     		ldr	r0, .L197
 2084 0084 2D24     		movs	r4, #45
 2085 0086 40F82240 		str	r4, [r0, r2, lsl #2]
 2086 008a EAE7     		b	.L190
 2087              	.L195:
 617:ContrlSys/ctr.c **** 	{
 2088              		.loc 1 617 33 is_stmt 1 discriminator 2 view .LVU668
 617:ContrlSys/ctr.c **** 	{
 2089              		.loc 1 617 34 is_stmt 0 discriminator 2 view .LVU669
 2090 008c 0131     		adds	r1, r1, #1
 2091              	.LVL123:
 2092              	.L188:
 617:ContrlSys/ctr.c **** 	{
 2093              		.loc 1 617 10 is_stmt 1 discriminator 1 view .LVU670
 617:ContrlSys/ctr.c **** 	{
 2094              		.loc 1 617 2 is_stmt 0 discriminator 1 view .LVU671
 2095 008e AE29     		cmp	r1, #174
 2096 0090 01D8     		bhi	.L196
 619:ContrlSys/ctr.c **** 		{
 2097              		.loc 1 619 8 view .LVU672
 2098 0092 0023     		movs	r3, #0
 2099 0094 E6E7     		b	.L192
 2100              	.L196:
 623:ContrlSys/ctr.c **** 		}
 624:ContrlSys/ctr.c **** 	}
 625:ContrlSys/ctr.c **** 
 626:ContrlSys/ctr.c **** }
 2101              		.loc 1 626 1 view .LVU673
 2102 0096 38BD     		pop	{r3, r4, r5, pc}
 2103              	.LVL124:
 2104              	.L198:
 2105              		.loc 1 626 1 view .LVU674
 2106              		.align	2
 2107              	.L197:
 2108 0098 00000000 		.word	WS2812B_Bit
 2109 009c 00000000 		.word	WS2812B_Buf
 2110              		.cfi_endproc
 2111              	.LFE78:
 2113              		.section	.text.Light_flow3,"ax",%progbits
 2114              		.align	1
 2115              		.global	Light_flow3
 2116              		.syntax unified
 2117              		.thumb
 2118              		.thumb_func
 2120              	Light_flow3:
 2121              	.LVL125:
 2122              	.LFB79:
 627:ContrlSys/ctr.c **** 
 628:ContrlSys/ctr.c **** /*
ARM GAS  C:\Users\21945\AppData\Local\Temp\cc3xKqqk.s 			page 66


 629:ContrlSys/ctr.c **** *三级流水灯
 630:ContrlSys/ctr.c **** *
 631:ContrlSys/ctr.c **** *
 632:ContrlSys/ctr.c **** **/
 633:ContrlSys/ctr.c **** void Light_flow3(int s,int RGB)
 634:ContrlSys/ctr.c **** {
 2123              		.loc 1 634 1 is_stmt 1 view -0
 2124              		.cfi_startproc
 2125              		@ args = 0, pretend = 0, frame = 0
 2126              		@ frame_needed = 0, uses_anonymous_args = 0
 2127              		.loc 1 634 1 is_stmt 0 view .LVU676
 2128 0000 38B5     		push	{r3, r4, r5, lr}
 2129              	.LCFI20:
 2130              		.cfi_def_cfa_offset 16
 2131              		.cfi_offset 3, -16
 2132              		.cfi_offset 4, -12
 2133              		.cfi_offset 5, -8
 2134              		.cfi_offset 14, -4
 2135 0002 0446     		mov	r4, r0
 2136 0004 0D46     		mov	r5, r1
 635:ContrlSys/ctr.c **** 	uint32_t i,j;
 2137              		.loc 1 635 2 is_stmt 1 view .LVU677
 636:ContrlSys/ctr.c **** 	Arror(4,s,RGB);
 2138              		.loc 1 636 2 view .LVU678
 2139 0006 0A46     		mov	r2, r1
 2140 0008 0146     		mov	r1, r0
 2141              	.LVL126:
 2142              		.loc 1 636 2 is_stmt 0 view .LVU679
 2143 000a 0420     		movs	r0, #4
 2144              	.LVL127:
 2145              		.loc 1 636 2 view .LVU680
 2146 000c FFF7FEFF 		bl	Arror
 2147              	.LVL128:
 637:ContrlSys/ctr.c **** 	Arror(9,s,RGB);
 2148              		.loc 1 637 2 is_stmt 1 view .LVU681
 2149 0010 2A46     		mov	r2, r5
 2150 0012 2146     		mov	r1, r4
 2151 0014 0920     		movs	r0, #9
 2152 0016 FFF7FEFF 		bl	Arror
 2153              	.LVL129:
 638:ContrlSys/ctr.c **** 	Arror(14,s,RGB);
 2154              		.loc 1 638 2 view .LVU682
 2155 001a 2A46     		mov	r2, r5
 2156 001c 2146     		mov	r1, r4
 2157 001e 0E20     		movs	r0, #14
 2158 0020 FFF7FEFF 		bl	Arror
 2159              	.LVL130:
 639:ContrlSys/ctr.c **** 	Arror(19,s,RGB);
 2160              		.loc 1 639 2 view .LVU683
 2161 0024 2A46     		mov	r2, r5
 2162 0026 2146     		mov	r1, r4
 2163 0028 1320     		movs	r0, #19
 2164 002a FFF7FEFF 		bl	Arror
 2165              	.LVL131:
 640:ContrlSys/ctr.c **** 	Arror(24,s,RGB);
 2166              		.loc 1 640 2 view .LVU684
 2167 002e 2A46     		mov	r2, r5
ARM GAS  C:\Users\21945\AppData\Local\Temp\cc3xKqqk.s 			page 67


 2168 0030 2146     		mov	r1, r4
 2169 0032 1820     		movs	r0, #24
 2170 0034 FFF7FEFF 		bl	Arror
 2171              	.LVL132:
 641:ContrlSys/ctr.c **** 	Arror(29,s,RGB);
 2172              		.loc 1 641 2 view .LVU685
 2173 0038 2A46     		mov	r2, r5
 2174 003a 2146     		mov	r1, r4
 2175 003c 1D20     		movs	r0, #29
 2176 003e FFF7FEFF 		bl	Arror
 2177              	.LVL133:
 642:ContrlSys/ctr.c **** 	Arror(34,s,RGB);	
 2178              		.loc 1 642 2 view .LVU686
 2179 0042 2A46     		mov	r2, r5
 2180 0044 2146     		mov	r1, r4
 2181 0046 2220     		movs	r0, #34
 2182 0048 FFF7FEFF 		bl	Arror
 2183              	.LVL134:
 643:ContrlSys/ctr.c **** 	
 644:ContrlSys/ctr.c **** 	for(j=0;j<WS2812B_LED_QUANTITY;j++)
 2184              		.loc 1 644 2 view .LVU687
 2185              		.loc 1 644 7 is_stmt 0 view .LVU688
 2186 004c 0021     		movs	r1, #0
 2187              		.loc 1 644 2 view .LVU689
 2188 004e 1EE0     		b	.L200
 2189              	.LVL135:
 2190              	.L201:
 645:ContrlSys/ctr.c **** 	{
 646:ContrlSys/ctr.c **** 		for(i=0;i<24;i++)
 647:ContrlSys/ctr.c **** 		{
 648:ContrlSys/ctr.c **** 			if(WS2812B_Buf[j]&(0x800000>>i)){WS2812B_Bit[j*24+i+1]=45;}  //BIT位为1 设置相应的占空比
 649:ContrlSys/ctr.c **** 			else{WS2812B_Bit[j*24+i+1]=25;}
 2191              		.loc 1 649 9 is_stmt 1 view .LVU690
 2192              		.loc 1 649 22 is_stmt 0 view .LVU691
 2193 0050 01EB4102 		add	r2, r1, r1, lsl #1
 2194              		.loc 1 649 25 view .LVU692
 2195 0054 03EBC202 		add	r2, r3, r2, lsl #3
 2196              		.loc 1 649 27 view .LVU693
 2197 0058 0132     		adds	r2, r2, #1
 2198              		.loc 1 649 30 view .LVU694
 2199 005a 0F48     		ldr	r0, .L209
 2200 005c 1924     		movs	r4, #25
 2201 005e 40F82240 		str	r4, [r0, r2, lsl #2]
 2202              	.L202:
 646:ContrlSys/ctr.c **** 		{
 2203              		.loc 1 646 16 is_stmt 1 discriminator 2 view .LVU695
 646:ContrlSys/ctr.c **** 		{
 2204              		.loc 1 646 17 is_stmt 0 discriminator 2 view .LVU696
 2205 0062 0133     		adds	r3, r3, #1
 2206              	.LVL136:
 2207              	.L204:
 646:ContrlSys/ctr.c **** 		{
 2208              		.loc 1 646 11 is_stmt 1 discriminator 1 view .LVU697
 646:ContrlSys/ctr.c **** 		{
 2209              		.loc 1 646 3 is_stmt 0 discriminator 1 view .LVU698
 2210 0064 172B     		cmp	r3, #23
 2211 0066 11D8     		bhi	.L207
ARM GAS  C:\Users\21945\AppData\Local\Temp\cc3xKqqk.s 			page 68


 648:ContrlSys/ctr.c **** 			else{WS2812B_Bit[j*24+i+1]=25;}
 2212              		.loc 1 648 4 is_stmt 1 view .LVU699
 648:ContrlSys/ctr.c **** 			else{WS2812B_Bit[j*24+i+1]=25;}
 2213              		.loc 1 648 18 is_stmt 0 view .LVU700
 2214 0068 0C4A     		ldr	r2, .L209+4
 2215 006a 52F82100 		ldr	r0, [r2, r1, lsl #2]
 648:ContrlSys/ctr.c **** 			else{WS2812B_Bit[j*24+i+1]=25;}
 2216              		.loc 1 648 31 view .LVU701
 2217 006e 4FF40002 		mov	r2, #8388608
 2218 0072 1A41     		asrs	r2, r2, r3
 648:ContrlSys/ctr.c **** 			else{WS2812B_Bit[j*24+i+1]=25;}
 2219              		.loc 1 648 6 view .LVU702
 2220 0074 1042     		tst	r0, r2
 2221 0076 EBD0     		beq	.L201
 648:ContrlSys/ctr.c **** 			else{WS2812B_Bit[j*24+i+1]=25;}
 2222              		.loc 1 648 37 is_stmt 1 discriminator 1 view .LVU703
 648:ContrlSys/ctr.c **** 			else{WS2812B_Bit[j*24+i+1]=25;}
 2223              		.loc 1 648 50 is_stmt 0 discriminator 1 view .LVU704
 2224 0078 01EB4102 		add	r2, r1, r1, lsl #1
 648:ContrlSys/ctr.c **** 			else{WS2812B_Bit[j*24+i+1]=25;}
 2225              		.loc 1 648 53 discriminator 1 view .LVU705
 2226 007c 03EBC202 		add	r2, r3, r2, lsl #3
 648:ContrlSys/ctr.c **** 			else{WS2812B_Bit[j*24+i+1]=25;}
 2227              		.loc 1 648 55 discriminator 1 view .LVU706
 2228 0080 0132     		adds	r2, r2, #1
 648:ContrlSys/ctr.c **** 			else{WS2812B_Bit[j*24+i+1]=25;}
 2229              		.loc 1 648 58 discriminator 1 view .LVU707
 2230 0082 0548     		ldr	r0, .L209
 2231 0084 2D24     		movs	r4, #45
 2232 0086 40F82240 		str	r4, [r0, r2, lsl #2]
 2233 008a EAE7     		b	.L202
 2234              	.L207:
 644:ContrlSys/ctr.c **** 	{
 2235              		.loc 1 644 33 is_stmt 1 discriminator 2 view .LVU708
 644:ContrlSys/ctr.c **** 	{
 2236              		.loc 1 644 34 is_stmt 0 discriminator 2 view .LVU709
 2237 008c 0131     		adds	r1, r1, #1
 2238              	.LVL137:
 2239              	.L200:
 644:ContrlSys/ctr.c **** 	{
 2240              		.loc 1 644 10 is_stmt 1 discriminator 1 view .LVU710
 644:ContrlSys/ctr.c **** 	{
 2241              		.loc 1 644 2 is_stmt 0 discriminator 1 view .LVU711
 2242 008e AE29     		cmp	r1, #174
 2243 0090 01D8     		bhi	.L208
 646:ContrlSys/ctr.c **** 		{
 2244              		.loc 1 646 8 view .LVU712
 2245 0092 0023     		movs	r3, #0
 2246 0094 E6E7     		b	.L204
 2247              	.L208:
 650:ContrlSys/ctr.c **** 		}
 651:ContrlSys/ctr.c **** 	}
 652:ContrlSys/ctr.c **** 
 653:ContrlSys/ctr.c **** }
 2248              		.loc 1 653 1 view .LVU713
 2249 0096 38BD     		pop	{r3, r4, r5, pc}
 2250              	.LVL138:
ARM GAS  C:\Users\21945\AppData\Local\Temp\cc3xKqqk.s 			page 69


 2251              	.L210:
 2252              		.loc 1 653 1 view .LVU714
 2253              		.align	2
 2254              	.L209:
 2255 0098 00000000 		.word	WS2812B_Bit
 2256 009c 00000000 		.word	WS2812B_Buf
 2257              		.cfi_endproc
 2258              	.LFE79:
 2260              		.section	.text.Ctr_Fan,"ax",%progbits
 2261              		.align	1
 2262              		.global	Ctr_Fan
 2263              		.syntax unified
 2264              		.thumb
 2265              		.thumb_func
 2267              	Ctr_Fan:
 2268              	.LVL139:
 2269              	.LFB70:
 136:ContrlSys/ctr.c **** 	i_count = 0;
 2270              		.loc 1 136 1 is_stmt 1 view -0
 2271              		.cfi_startproc
 2272              		@ args = 0, pretend = 0, frame = 0
 2273              		@ frame_needed = 0, uses_anonymous_args = 0
 136:ContrlSys/ctr.c **** 	i_count = 0;
 2274              		.loc 1 136 1 is_stmt 0 view .LVU716
 2275 0000 70B5     		push	{r4, r5, r6, lr}
 2276              	.LCFI21:
 2277              		.cfi_def_cfa_offset 16
 2278              		.cfi_offset 4, -16
 2279              		.cfi_offset 5, -12
 2280              		.cfi_offset 6, -8
 2281              		.cfi_offset 14, -4
 2282 0002 0646     		mov	r6, r0
 2283 0004 0D46     		mov	r5, r1
 137:ContrlSys/ctr.c **** 	//模式检测
 2284              		.loc 1 137 2 is_stmt 1 view .LVU717
 137:ContrlSys/ctr.c **** 	//模式检测
 2285              		.loc 1 137 10 is_stmt 0 view .LVU718
 2286 0006 0024     		movs	r4, #0
 2287 0008 5F4B     		ldr	r3, .L243
 2288 000a 1C60     		str	r4, [r3]
 139:ContrlSys/ctr.c **** 	
 2289              		.loc 1 139 2 is_stmt 1 view .LVU719
 2290 000c FFF7FEFF 		bl	Vibra_Detection
 2291              	.LVL140:
 141:ContrlSys/ctr.c **** 	{
 2292              		.loc 1 141 2 view .LVU720
 2293              	.LBB15:
 141:ContrlSys/ctr.c **** 	{
 2294              		.loc 1 141 6 view .LVU721
 141:ContrlSys/ctr.c **** 	{
 2295              		.loc 1 141 14 is_stmt 0 view .LVU722
 2296 0010 2346     		mov	r3, r4
 141:ContrlSys/ctr.c **** 	{
 2297              		.loc 1 141 2 view .LVU723
 2298 0012 01E0     		b	.L212
 2299              	.LVL141:
 2300              	.L213:
ARM GAS  C:\Users\21945\AppData\Local\Temp\cc3xKqqk.s 			page 70


 141:ContrlSys/ctr.c **** 	{
 2301              		.loc 1 141 22 is_stmt 1 discriminator 2 view .LVU724
 141:ContrlSys/ctr.c **** 	{
 2302              		.loc 1 141 23 is_stmt 0 discriminator 2 view .LVU725
 2303 0014 0133     		adds	r3, r3, #1
 2304              	.LVL142:
 141:ContrlSys/ctr.c **** 	{
 2305              		.loc 1 141 23 discriminator 2 view .LVU726
 2306 0016 DBB2     		uxtb	r3, r3
 2307              	.LVL143:
 2308              	.L212:
 141:ContrlSys/ctr.c **** 	{
 2309              		.loc 1 141 18 is_stmt 1 discriminator 1 view .LVU727
 141:ContrlSys/ctr.c **** 	{
 2310              		.loc 1 141 2 is_stmt 0 discriminator 1 view .LVU728
 2311 0018 042B     		cmp	r3, #4
 2312 001a 09D8     		bhi	.L231
 143:ContrlSys/ctr.c **** 		{
 2313              		.loc 1 143 3 is_stmt 1 view .LVU729
 143:ContrlSys/ctr.c **** 		{
 2314              		.loc 1 143 15 is_stmt 0 view .LVU730
 2315 001c 1A01     		lsls	r2, r3, #4
 2316 001e 5B49     		ldr	r1, .L243+4
 2317 0020 8A58     		ldr	r2, [r1, r2]
 143:ContrlSys/ctr.c **** 		{
 2318              		.loc 1 143 5 view .LVU731
 2319 0022 012A     		cmp	r2, #1
 2320 0024 F6D1     		bne	.L213
 145:ContrlSys/ctr.c **** 		}
 2321              		.loc 1 145 4 is_stmt 1 view .LVU732
 145:ContrlSys/ctr.c **** 		}
 2322              		.loc 1 145 22 is_stmt 0 view .LVU733
 2323 0026 5849     		ldr	r1, .L243
 2324 0028 0A68     		ldr	r2, [r1]
 2325 002a 0132     		adds	r2, r2, #1
 145:ContrlSys/ctr.c **** 		}
 2326              		.loc 1 145 12 view .LVU734
 2327 002c 0A60     		str	r2, [r1]
 2328 002e F1E7     		b	.L213
 2329              	.L231:
 2330              	.LBE15:
 148:ContrlSys/ctr.c **** 			ES.fan[5].mode = 2;
 2331              		.loc 1 148 2 is_stmt 1 view .LVU735
 148:ContrlSys/ctr.c **** 			ES.fan[5].mode = 2;
 2332              		.loc 1 148 12 is_stmt 0 view .LVU736
 2333 0030 554B     		ldr	r3, .L243
 2334              	.LVL144:
 148:ContrlSys/ctr.c **** 			ES.fan[5].mode = 2;
 2335              		.loc 1 148 12 view .LVU737
 2336 0032 1B68     		ldr	r3, [r3]
 148:ContrlSys/ctr.c **** 			ES.fan[5].mode = 2;
 2337              		.loc 1 148 4 view .LVU738
 2338 0034 022B     		cmp	r3, #2
 2339 0036 03D0     		beq	.L232
 2340              	.L215:
 151:ContrlSys/ctr.c **** 			ES.fan[5].mode = 1;
 2341              		.loc 1 151 2 is_stmt 1 view .LVU739
ARM GAS  C:\Users\21945\AppData\Local\Temp\cc3xKqqk.s 			page 71


 151:ContrlSys/ctr.c **** 			ES.fan[5].mode = 1;
 2342              		.loc 1 151 4 is_stmt 0 view .LVU740
 2343 0038 032B     		cmp	r3, #3
 2344 003a 05D0     		beq	.L233
 2345              	.L216:
 2346              	.LBB16:
 141:ContrlSys/ctr.c **** 	{
 2347              		.loc 1 141 14 discriminator 1 view .LVU741
 2348 003c 0024     		movs	r4, #0
 2349 003e 1BE0     		b	.L217
 2350              	.L232:
 2351              	.LBE16:
 149:ContrlSys/ctr.c **** 	}
 2352              		.loc 1 149 4 is_stmt 1 view .LVU742
 149:ContrlSys/ctr.c **** 	}
 2353              		.loc 1 149 19 is_stmt 0 view .LVU743
 2354 0040 524A     		ldr	r2, .L243+4
 2355 0042 0221     		movs	r1, #2
 2356 0044 1165     		str	r1, [r2, #80]
 2357 0046 F7E7     		b	.L215
 2358              	.L233:
 152:ContrlSys/ctr.c **** 	}
 2359              		.loc 1 152 4 is_stmt 1 view .LVU744
 152:ContrlSys/ctr.c **** 	}
 2360              		.loc 1 152 19 is_stmt 0 view .LVU745
 2361 0048 504B     		ldr	r3, .L243+4
 2362 004a 0122     		movs	r2, #1
 2363 004c 1A65     		str	r2, [r3, #80]
 2364 004e F5E7     		b	.L216
 2365              	.LVL145:
 2366              	.L218:
 166:ContrlSys/ctr.c **** 				LINE_Init();
 2367              		.loc 1 166 5 is_stmt 1 view .LVU746
 2368 0050 2846     		mov	r0, r5
 2369 0052 FFF7FEFF 		bl	Light_on
 2370              	.LVL146:
 167:ContrlSys/ctr.c **** 				LED_YUAN_Init();
 2371              		.loc 1 167 5 view .LVU747
 2372 0056 FFF7FEFF 		bl	LINE_Init
 2373              	.LVL147:
 168:ContrlSys/ctr.c **** 				break;
 2374              		.loc 1 168 5 view .LVU748
 2375 005a FFF7FEFF 		bl	LED_YUAN_Init
 2376              	.LVL148:
 169:ContrlSys/ctr.c **** 			case 2:
 2377              		.loc 1 169 5 view .LVU749
 2378              	.L220:
 188:ContrlSys/ctr.c **** 		HAL_TIM_PWM_Start_DMA(&htim4,TIM_CHANNEL_1,&WS2812B_Bit[0],24*All_Number+1);
 2379              		.loc 1 188 3 view .LVU750
 188:ContrlSys/ctr.c **** 		HAL_TIM_PWM_Start_DMA(&htim4,TIM_CHANNEL_1,&WS2812B_Bit[0],24*All_Number+1);
 2380              		.loc 1 188 5 is_stmt 0 view .LVU751
 2381 005e 002C     		cmp	r4, #0
 2382 0060 42D0     		beq	.L234
 2383              	.L223:
 193:ContrlSys/ctr.c **** 		HAL_TIM_PWM_Start_DMA(&htim2,TIM_CHANNEL_1,&WS2812B_Bit[0],24*All_Number+1);
 2384              		.loc 1 193 3 is_stmt 1 view .LVU752
 193:ContrlSys/ctr.c **** 		HAL_TIM_PWM_Start_DMA(&htim2,TIM_CHANNEL_1,&WS2812B_Bit[0],24*All_Number+1);
ARM GAS  C:\Users\21945\AppData\Local\Temp\cc3xKqqk.s 			page 72


 2385              		.loc 1 193 5 is_stmt 0 view .LVU753
 2386 0062 012C     		cmp	r4, #1
 2387 0064 4DD0     		beq	.L235
 2388              	.L224:
 198:ContrlSys/ctr.c **** 		HAL_TIM_PWM_Start_DMA(&htim5,TIM_CHANNEL_1,&WS2812B_Bit[0],24*All_Number+1);
 2389              		.loc 1 198 3 is_stmt 1 view .LVU754
 198:ContrlSys/ctr.c **** 		HAL_TIM_PWM_Start_DMA(&htim5,TIM_CHANNEL_1,&WS2812B_Bit[0],24*All_Number+1);
 2390              		.loc 1 198 5 is_stmt 0 view .LVU755
 2391 0066 022C     		cmp	r4, #2
 2392 0068 58D0     		beq	.L236
 2393              	.L225:
 203:ContrlSys/ctr.c **** 		HAL_TIM_PWM_Start_DMA(&htim3,TIM_CHANNEL_4,&WS2812B_Bit[0],24*All_Number+1);
 2394              		.loc 1 203 3 is_stmt 1 view .LVU756
 203:ContrlSys/ctr.c **** 		HAL_TIM_PWM_Start_DMA(&htim3,TIM_CHANNEL_4,&WS2812B_Bit[0],24*All_Number+1);
 2395              		.loc 1 203 5 is_stmt 0 view .LVU757
 2396 006a 032C     		cmp	r4, #3
 2397 006c 63D0     		beq	.L237
 2398              	.L226:
 208:ContrlSys/ctr.c **** 		HAL_TIM_PWM_Start_DMA(&htim1,TIM_CHANNEL_1,&WS2812B_Bit[0],24*All_Number+1);
 2399              		.loc 1 208 3 is_stmt 1 view .LVU758
 208:ContrlSys/ctr.c **** 		HAL_TIM_PWM_Start_DMA(&htim1,TIM_CHANNEL_1,&WS2812B_Bit[0],24*All_Number+1);
 2400              		.loc 1 208 5 is_stmt 0 view .LVU759
 2401 006e 042C     		cmp	r4, #4
 2402 0070 6ED0     		beq	.L238
 2403              	.L227:
 213:ContrlSys/ctr.c **** 		HAL_TIM_PWM_Start_DMA(&htim8,TIM_CHANNEL_3,&WS2812B_Bit[0],24*All_Number+1);
 2404              		.loc 1 213 3 is_stmt 1 view .LVU760
 213:ContrlSys/ctr.c **** 		HAL_TIM_PWM_Start_DMA(&htim8,TIM_CHANNEL_3,&WS2812B_Bit[0],24*All_Number+1);
 2405              		.loc 1 213 5 is_stmt 0 view .LVU761
 2406 0072 052C     		cmp	r4, #5
 2407 0074 79D0     		beq	.L239
 2408              	.L228:
 157:ContrlSys/ctr.c **** 		ALL_ClearBuf();
 2409              		.loc 1 157 14 is_stmt 1 discriminator 2 view .LVU762
 157:ContrlSys/ctr.c **** 		ALL_ClearBuf();
 2410              		.loc 1 157 15 is_stmt 0 discriminator 2 view .LVU763
 2411 0076 0134     		adds	r4, r4, #1
 2412              	.LVL149:
 2413              	.L217:
 157:ContrlSys/ctr.c **** 		ALL_ClearBuf();
 2414              		.loc 1 157 10 is_stmt 1 discriminator 1 view .LVU764
 157:ContrlSys/ctr.c **** 		ALL_ClearBuf();
 2415              		.loc 1 157 2 is_stmt 0 discriminator 1 view .LVU765
 2416 0078 052C     		cmp	r4, #5
 2417 007a 00F38380 		bgt	.L240
 158:ContrlSys/ctr.c **** 		ALL_UpdateBuf();
 2418              		.loc 1 158 3 is_stmt 1 view .LVU766
 2419 007e FFF7FEFF 		bl	ALL_ClearBuf
 2420              	.LVL150:
 159:ContrlSys/ctr.c **** 		switch(ES.fan[i].mode)
 2421              		.loc 1 159 3 view .LVU767
 2422 0082 FFF7FEFF 		bl	ALL_UpdateBuf
 2423              	.LVL151:
 160:ContrlSys/ctr.c **** 		{
 2424              		.loc 1 160 3 view .LVU768
 160:ContrlSys/ctr.c **** 		{
 2425              		.loc 1 160 19 is_stmt 0 view .LVU769
ARM GAS  C:\Users\21945\AppData\Local\Temp\cc3xKqqk.s 			page 73


 2426 0086 2301     		lsls	r3, r4, #4
 2427 0088 404A     		ldr	r2, .L243+4
 2428 008a D358     		ldr	r3, [r2, r3]
 160:ContrlSys/ctr.c **** 		{
 2429              		.loc 1 160 3 view .LVU770
 2430 008c 012B     		cmp	r3, #1
 2431 008e DFD0     		beq	.L218
 2432 0090 022B     		cmp	r3, #2
 2433 0092 04D0     		beq	.L219
 2434 0094 002B     		cmp	r3, #0
 2435 0096 E2D1     		bne	.L220
 163:ContrlSys/ctr.c **** 				break;
 2436              		.loc 1 163 5 is_stmt 1 view .LVU771
 2437 0098 FFF7FEFF 		bl	Light_off
 2438              	.LVL152:
 164:ContrlSys/ctr.c **** 			case 1:
 2439              		.loc 1 164 5 view .LVU772
 2440 009c DFE7     		b	.L220
 2441              	.L219:
 172:ContrlSys/ctr.c **** 					Light_flow(s,RGB);
 2442              		.loc 1 172 5 view .LVU773
 172:ContrlSys/ctr.c **** 					Light_flow(s,RGB);
 2443              		.loc 1 172 18 is_stmt 0 view .LVU774
 2444 009e 3C4B     		ldr	r3, .L243+8
 2445 00a0 1B68     		ldr	r3, [r3]
 172:ContrlSys/ctr.c **** 					Light_flow(s,RGB);
 2446              		.loc 1 172 7 view .LVU775
 2447 00a2 6BB1     		cbz	r3, .L241
 176:ContrlSys/ctr.c **** 					Light_flow2(s,RGB);
 2448              		.loc 1 176 11 is_stmt 1 view .LVU776
 176:ContrlSys/ctr.c **** 					Light_flow2(s,RGB);
 2449              		.loc 1 176 13 is_stmt 0 view .LVU777
 2450 00a4 012B     		cmp	r3, #1
 2451 00a6 15D0     		beq	.L242
 180:ContrlSys/ctr.c **** 					Light_flow3(s,RGB);
 2452              		.loc 1 180 11 is_stmt 1 view .LVU778
 180:ContrlSys/ctr.c **** 					Light_flow3(s,RGB);
 2453              		.loc 1 180 13 is_stmt 0 view .LVU779
 2454 00a8 022B     		cmp	r3, #2
 2455 00aa D8D1     		bne	.L220
 181:ContrlSys/ctr.c **** 							LED_YUAN_Init();
 2456              		.loc 1 181 6 is_stmt 1 view .LVU780
 2457 00ac 2946     		mov	r1, r5
 2458 00ae 3046     		mov	r0, r6
 2459 00b0 FFF7FEFF 		bl	Light_flow3
 2460              	.LVL153:
 182:ContrlSys/ctr.c **** 					Flow_flag = 0;
 2461              		.loc 1 182 8 view .LVU781
 2462 00b4 FFF7FEFF 		bl	LED_YUAN_Init
 2463              	.LVL154:
 183:ContrlSys/ctr.c **** 				}
 2464              		.loc 1 183 6 view .LVU782
 183:ContrlSys/ctr.c **** 				}
 2465              		.loc 1 183 16 is_stmt 0 view .LVU783
 2466 00b8 354B     		ldr	r3, .L243+8
 2467 00ba 0022     		movs	r2, #0
 2468 00bc 1A60     		str	r2, [r3]
ARM GAS  C:\Users\21945\AppData\Local\Temp\cc3xKqqk.s 			page 74


 2469 00be CEE7     		b	.L220
 2470              	.L241:
 173:ContrlSys/ctr.c **** 					LED_YUAN_Init();
 2471              		.loc 1 173 6 is_stmt 1 view .LVU784
 2472 00c0 2946     		mov	r1, r5
 2473 00c2 3046     		mov	r0, r6
 2474 00c4 FFF7FEFF 		bl	Light_flow
 2475              	.LVL155:
 174:ContrlSys/ctr.c **** 					Flow_flag = 1;
 2476              		.loc 1 174 6 view .LVU785
 2477 00c8 FFF7FEFF 		bl	LED_YUAN_Init
 2478              	.LVL156:
 175:ContrlSys/ctr.c **** 				}else if(Flow_flag == 1){
 2479              		.loc 1 175 6 view .LVU786
 175:ContrlSys/ctr.c **** 				}else if(Flow_flag == 1){
 2480              		.loc 1 175 16 is_stmt 0 view .LVU787
 2481 00cc 304B     		ldr	r3, .L243+8
 2482 00ce 0122     		movs	r2, #1
 2483 00d0 1A60     		str	r2, [r3]
 2484 00d2 C4E7     		b	.L220
 2485              	.L242:
 177:ContrlSys/ctr.c **** 					LED_YUAN_Init();
 2486              		.loc 1 177 6 is_stmt 1 view .LVU788
 2487 00d4 2946     		mov	r1, r5
 2488 00d6 3046     		mov	r0, r6
 2489 00d8 FFF7FEFF 		bl	Light_flow2
 2490              	.LVL157:
 178:ContrlSys/ctr.c **** 					Flow_flag = 2;
 2491              		.loc 1 178 6 view .LVU789
 2492 00dc FFF7FEFF 		bl	LED_YUAN_Init
 2493              	.LVL158:
 179:ContrlSys/ctr.c **** 				}else if(Flow_flag == 2){
 2494              		.loc 1 179 6 view .LVU790
 179:ContrlSys/ctr.c **** 				}else if(Flow_flag == 2){
 2495              		.loc 1 179 16 is_stmt 0 view .LVU791
 2496 00e0 2B4B     		ldr	r3, .L243+8
 2497 00e2 0222     		movs	r2, #2
 2498 00e4 1A60     		str	r2, [r3]
 2499 00e6 BAE7     		b	.L220
 2500              	.L234:
 189:ContrlSys/ctr.c **** 		HAL_Delay(30);
 2501              		.loc 1 189 3 is_stmt 1 view .LVU792
 2502 00e8 42F29953 		movw	r3, #9625
 2503 00ec 294A     		ldr	r2, .L243+12
 2504 00ee 0021     		movs	r1, #0
 2505 00f0 2948     		ldr	r0, .L243+16
 2506 00f2 FFF7FEFF 		bl	HAL_TIM_PWM_Start_DMA
 2507              	.LVL159:
 190:ContrlSys/ctr.c **** 		Vibra_monitor();
 2508              		.loc 1 190 3 view .LVU793
 2509 00f6 1E20     		movs	r0, #30
 2510 00f8 FFF7FEFF 		bl	HAL_Delay
 2511              	.LVL160:
 191:ContrlSys/ctr.c **** 		}
 2512              		.loc 1 191 3 view .LVU794
 2513 00fc FFF7FEFF 		bl	Vibra_monitor
 2514              	.LVL161:
ARM GAS  C:\Users\21945\AppData\Local\Temp\cc3xKqqk.s 			page 75


 2515 0100 AFE7     		b	.L223
 2516              	.L235:
 194:ContrlSys/ctr.c **** 		HAL_Delay(30);
 2517              		.loc 1 194 3 view .LVU795
 2518 0102 42F29953 		movw	r3, #9625
 2519 0106 234A     		ldr	r2, .L243+12
 2520 0108 0021     		movs	r1, #0
 2521 010a 2448     		ldr	r0, .L243+20
 2522 010c FFF7FEFF 		bl	HAL_TIM_PWM_Start_DMA
 2523              	.LVL162:
 195:ContrlSys/ctr.c **** 		Vibra_monitor();
 2524              		.loc 1 195 3 view .LVU796
 2525 0110 1E20     		movs	r0, #30
 2526 0112 FFF7FEFF 		bl	HAL_Delay
 2527              	.LVL163:
 196:ContrlSys/ctr.c **** 		}
 2528              		.loc 1 196 3 view .LVU797
 2529 0116 FFF7FEFF 		bl	Vibra_monitor
 2530              	.LVL164:
 2531 011a A4E7     		b	.L224
 2532              	.L236:
 199:ContrlSys/ctr.c **** 		HAL_Delay(30);
 2533              		.loc 1 199 3 view .LVU798
 2534 011c 42F29953 		movw	r3, #9625
 2535 0120 1C4A     		ldr	r2, .L243+12
 2536 0122 0021     		movs	r1, #0
 2537 0124 1E48     		ldr	r0, .L243+24
 2538 0126 FFF7FEFF 		bl	HAL_TIM_PWM_Start_DMA
 2539              	.LVL165:
 200:ContrlSys/ctr.c **** 		Vibra_monitor();
 2540              		.loc 1 200 3 view .LVU799
 2541 012a 1E20     		movs	r0, #30
 2542 012c FFF7FEFF 		bl	HAL_Delay
 2543              	.LVL166:
 201:ContrlSys/ctr.c **** 		}
 2544              		.loc 1 201 3 view .LVU800
 2545 0130 FFF7FEFF 		bl	Vibra_monitor
 2546              	.LVL167:
 2547 0134 99E7     		b	.L225
 2548              	.L237:
 204:ContrlSys/ctr.c **** 		HAL_Delay(30);
 2549              		.loc 1 204 3 view .LVU801
 2550 0136 42F29953 		movw	r3, #9625
 2551 013a 164A     		ldr	r2, .L243+12
 2552 013c 0C21     		movs	r1, #12
 2553 013e 1948     		ldr	r0, .L243+28
 2554 0140 FFF7FEFF 		bl	HAL_TIM_PWM_Start_DMA
 2555              	.LVL168:
 205:ContrlSys/ctr.c **** 		Vibra_monitor();
 2556              		.loc 1 205 3 view .LVU802
 2557 0144 1E20     		movs	r0, #30
 2558 0146 FFF7FEFF 		bl	HAL_Delay
 2559              	.LVL169:
 206:ContrlSys/ctr.c **** 		}
 2560              		.loc 1 206 3 view .LVU803
 2561 014a FFF7FEFF 		bl	Vibra_monitor
 2562              	.LVL170:
ARM GAS  C:\Users\21945\AppData\Local\Temp\cc3xKqqk.s 			page 76


 2563 014e 8EE7     		b	.L226
 2564              	.L238:
 209:ContrlSys/ctr.c **** 		HAL_Delay(30);
 2565              		.loc 1 209 3 view .LVU804
 2566 0150 42F29953 		movw	r3, #9625
 2567 0154 0F4A     		ldr	r2, .L243+12
 2568 0156 0021     		movs	r1, #0
 2569 0158 1348     		ldr	r0, .L243+32
 2570 015a FFF7FEFF 		bl	HAL_TIM_PWM_Start_DMA
 2571              	.LVL171:
 210:ContrlSys/ctr.c **** 		Vibra_monitor();
 2572              		.loc 1 210 3 view .LVU805
 2573 015e 1E20     		movs	r0, #30
 2574 0160 FFF7FEFF 		bl	HAL_Delay
 2575              	.LVL172:
 211:ContrlSys/ctr.c **** 		}
 2576              		.loc 1 211 3 view .LVU806
 2577 0164 FFF7FEFF 		bl	Vibra_monitor
 2578              	.LVL173:
 2579 0168 83E7     		b	.L227
 2580              	.L239:
 214:ContrlSys/ctr.c **** 		HAL_Delay(30);
 2581              		.loc 1 214 3 view .LVU807
 2582 016a 42F29953 		movw	r3, #9625
 2583 016e 094A     		ldr	r2, .L243+12
 2584 0170 0821     		movs	r1, #8
 2585 0172 0E48     		ldr	r0, .L243+36
 2586 0174 FFF7FEFF 		bl	HAL_TIM_PWM_Start_DMA
 2587              	.LVL174:
 215:ContrlSys/ctr.c **** 		Vibra_monitor();
 2588              		.loc 1 215 3 view .LVU808
 2589 0178 1E20     		movs	r0, #30
 2590 017a FFF7FEFF 		bl	HAL_Delay
 2591              	.LVL175:
 216:ContrlSys/ctr.c **** 		}
 2592              		.loc 1 216 3 view .LVU809
 2593 017e FFF7FEFF 		bl	Vibra_monitor
 2594              	.LVL176:
 2595 0182 78E7     		b	.L228
 2596              	.L240:
 220:ContrlSys/ctr.c **** 
 2597              		.loc 1 220 1 is_stmt 0 view .LVU810
 2598 0184 70BD     		pop	{r4, r5, r6, pc}
 2599              	.LVL177:
 2600              	.L244:
 220:ContrlSys/ctr.c **** 
 2601              		.loc 1 220 1 view .LVU811
 2602 0186 00BF     		.align	2
 2603              	.L243:
 2604 0188 00000000 		.word	.LANCHOR3
 2605 018c 00000000 		.word	.LANCHOR0
 2606 0190 00000000 		.word	.LANCHOR4
 2607 0194 00000000 		.word	WS2812B_Bit
 2608 0198 00000000 		.word	htim4
 2609 019c 00000000 		.word	htim2
 2610 01a0 00000000 		.word	htim5
 2611 01a4 00000000 		.word	htim3
ARM GAS  C:\Users\21945\AppData\Local\Temp\cc3xKqqk.s 			page 77


 2612 01a8 00000000 		.word	htim1
 2613 01ac 00000000 		.word	htim8
 2614              		.cfi_endproc
 2615              	.LFE70:
 2617              		.section	.text.Test,"ax",%progbits
 2618              		.align	1
 2619              		.global	Test
 2620              		.syntax unified
 2621              		.thumb
 2622              		.thumb_func
 2624              	Test:
 2625              	.LVL178:
 2626              	.LFB80:
 654:ContrlSys/ctr.c **** 
 655:ContrlSys/ctr.c **** /*
 656:ContrlSys/ctr.c **** *测试不同端口输出
 657:ContrlSys/ctr.c **** *
 658:ContrlSys/ctr.c **** **/
 659:ContrlSys/ctr.c **** void Test(int s,int RGB)
 660:ContrlSys/ctr.c **** {
 2627              		.loc 1 660 1 is_stmt 1 view -0
 2628              		.cfi_startproc
 2629              		@ args = 0, pretend = 0, frame = 0
 2630              		@ frame_needed = 0, uses_anonymous_args = 0
 2631              		@ link register save eliminated.
 661:ContrlSys/ctr.c **** 	uint32_t i,j;
 2632              		.loc 1 661 2 view .LVU813
 662:ContrlSys/ctr.c **** 	for(i=0;i<WS2812B_LED_QUANTITY+OUTER;i++)
 2633              		.loc 1 662 2 view .LVU814
 2634              		.loc 1 662 7 is_stmt 0 view .LVU815
 2635 0000 0023     		movs	r3, #0
 2636              		.loc 1 662 2 view .LVU816
 2637 0002 03E0     		b	.L246
 2638              	.LVL179:
 2639              	.L247:
 663:ContrlSys/ctr.c **** 	{
 664:ContrlSys/ctr.c **** 		WS2812B_Buf[i]=RGB;
 2640              		.loc 1 664 3 is_stmt 1 discriminator 3 view .LVU817
 2641              		.loc 1 664 17 is_stmt 0 discriminator 3 view .LVU818
 2642 0004 1C4A     		ldr	r2, .L264
 2643 0006 42F82310 		str	r1, [r2, r3, lsl #2]
 662:ContrlSys/ctr.c **** 	for(i=0;i<WS2812B_LED_QUANTITY+OUTER;i++)
 2644              		.loc 1 662 39 is_stmt 1 discriminator 3 view .LVU819
 662:ContrlSys/ctr.c **** 	for(i=0;i<WS2812B_LED_QUANTITY+OUTER;i++)
 2645              		.loc 1 662 40 is_stmt 0 discriminator 3 view .LVU820
 2646 000a 0133     		adds	r3, r3, #1
 2647              	.LVL180:
 2648              	.L246:
 662:ContrlSys/ctr.c **** 	for(i=0;i<WS2812B_LED_QUANTITY+OUTER;i++)
 2649              		.loc 1 662 10 is_stmt 1 discriminator 1 view .LVU821
 662:ContrlSys/ctr.c **** 	for(i=0;i<WS2812B_LED_QUANTITY+OUTER;i++)
 2650              		.loc 1 662 2 is_stmt 0 discriminator 1 view .LVU822
 2651 000c B3F5A87F 		cmp	r3, #336
 2652 0010 F8D9     		bls	.L247
 665:ContrlSys/ctr.c **** 	}
 666:ContrlSys/ctr.c **** //	WS2812B_SetBuf(RGB);
 667:ContrlSys/ctr.c **** 	
ARM GAS  C:\Users\21945\AppData\Local\Temp\cc3xKqqk.s 			page 78


 668:ContrlSys/ctr.c **** 	for(j=0;j<WS2812B_LED_QUANTITY+OUTER;j++)
 2653              		.loc 1 668 7 view .LVU823
 2654 0012 0021     		movs	r1, #0
 2655              	.LVL181:
 2656              		.loc 1 668 7 view .LVU824
 2657 0014 26E0     		b	.L255
 2658              	.LVL182:
 2659              	.L249:
 2660              	.LCFI22:
 2661              		.cfi_def_cfa_offset 4
 2662              		.cfi_offset 4, -4
 669:ContrlSys/ctr.c **** 	{
 670:ContrlSys/ctr.c **** 		for(i=0;i<24;i++)
 671:ContrlSys/ctr.c **** 		{
 672:ContrlSys/ctr.c **** 			if(WS2812B_Buf[j]&(0x800000>>i)){WS2812B_Bit[j*24+i+1]=45;}  //BIT位为1 设置相应的占空比
 673:ContrlSys/ctr.c **** 			else{WS2812B_Bit[j*24+i+1]=25;}
 2663              		.loc 1 673 9 is_stmt 1 view .LVU825
 2664              		.loc 1 673 22 is_stmt 0 view .LVU826
 2665 0016 01EB4102 		add	r2, r1, r1, lsl #1
 2666              		.loc 1 673 25 view .LVU827
 2667 001a 03EBC202 		add	r2, r3, r2, lsl #3
 2668              		.loc 1 673 27 view .LVU828
 2669 001e 0132     		adds	r2, r2, #1
 2670              		.loc 1 673 30 view .LVU829
 2671 0020 1648     		ldr	r0, .L264+4
 2672 0022 1924     		movs	r4, #25
 2673 0024 40F82240 		str	r4, [r0, r2, lsl #2]
 2674              	.L250:
 670:ContrlSys/ctr.c **** 		{
 2675              		.loc 1 670 16 is_stmt 1 discriminator 2 view .LVU830
 670:ContrlSys/ctr.c **** 		{
 2676              		.loc 1 670 17 is_stmt 0 discriminator 2 view .LVU831
 2677 0028 0133     		adds	r3, r3, #1
 2678              	.LVL183:
 2679              	.L252:
 670:ContrlSys/ctr.c **** 		{
 2680              		.loc 1 670 11 is_stmt 1 discriminator 1 view .LVU832
 670:ContrlSys/ctr.c **** 		{
 2681              		.loc 1 670 3 is_stmt 0 discriminator 1 view .LVU833
 2682 002a 172B     		cmp	r3, #23
 2683 002c 11D8     		bhi	.L260
 2684              	.L251:
 672:ContrlSys/ctr.c **** 			else{WS2812B_Bit[j*24+i+1]=25;}
 2685              		.loc 1 672 4 is_stmt 1 view .LVU834
 672:ContrlSys/ctr.c **** 			else{WS2812B_Bit[j*24+i+1]=25;}
 2686              		.loc 1 672 18 is_stmt 0 view .LVU835
 2687 002e 124A     		ldr	r2, .L264
 2688 0030 52F82100 		ldr	r0, [r2, r1, lsl #2]
 672:ContrlSys/ctr.c **** 			else{WS2812B_Bit[j*24+i+1]=25;}
 2689              		.loc 1 672 31 view .LVU836
 2690 0034 4FF40002 		mov	r2, #8388608
 2691 0038 1A41     		asrs	r2, r2, r3
 672:ContrlSys/ctr.c **** 			else{WS2812B_Bit[j*24+i+1]=25;}
 2692              		.loc 1 672 6 view .LVU837
 2693 003a 1042     		tst	r0, r2
 2694 003c EBD0     		beq	.L249
 672:ContrlSys/ctr.c **** 			else{WS2812B_Bit[j*24+i+1]=25;}
ARM GAS  C:\Users\21945\AppData\Local\Temp\cc3xKqqk.s 			page 79


 2695              		.loc 1 672 37 is_stmt 1 discriminator 1 view .LVU838
 672:ContrlSys/ctr.c **** 			else{WS2812B_Bit[j*24+i+1]=25;}
 2696              		.loc 1 672 50 is_stmt 0 discriminator 1 view .LVU839
 2697 003e 01EB4102 		add	r2, r1, r1, lsl #1
 672:ContrlSys/ctr.c **** 			else{WS2812B_Bit[j*24+i+1]=25;}
 2698              		.loc 1 672 53 discriminator 1 view .LVU840
 2699 0042 03EBC202 		add	r2, r3, r2, lsl #3
 672:ContrlSys/ctr.c **** 			else{WS2812B_Bit[j*24+i+1]=25;}
 2700              		.loc 1 672 55 discriminator 1 view .LVU841
 2701 0046 0132     		adds	r2, r2, #1
 672:ContrlSys/ctr.c **** 			else{WS2812B_Bit[j*24+i+1]=25;}
 2702              		.loc 1 672 58 discriminator 1 view .LVU842
 2703 0048 0C48     		ldr	r0, .L264+4
 2704 004a 2D24     		movs	r4, #45
 2705 004c 40F82240 		str	r4, [r0, r2, lsl #2]
 2706 0050 EAE7     		b	.L250
 2707              	.L260:
 668:ContrlSys/ctr.c **** 	{
 2708              		.loc 1 668 39 is_stmt 1 discriminator 2 view .LVU843
 668:ContrlSys/ctr.c **** 	{
 2709              		.loc 1 668 40 is_stmt 0 discriminator 2 view .LVU844
 2710 0052 0131     		adds	r1, r1, #1
 2711              	.LVL184:
 668:ContrlSys/ctr.c **** 	{
 2712              		.loc 1 668 10 is_stmt 1 discriminator 2 view .LVU845
 668:ContrlSys/ctr.c **** 	{
 2713              		.loc 1 668 2 is_stmt 0 discriminator 2 view .LVU846
 2714 0054 B1F5A87F 		cmp	r1, #336
 2715 0058 01D8     		bhi	.L261
 670:ContrlSys/ctr.c **** 		{
 2716              		.loc 1 670 8 view .LVU847
 2717 005a 0023     		movs	r3, #0
 2718              	.LVL185:
 670:ContrlSys/ctr.c **** 		{
 2719              		.loc 1 670 8 view .LVU848
 2720 005c E5E7     		b	.L252
 2721              	.LVL186:
 2722              	.L261:
 674:ContrlSys/ctr.c **** 		}
 675:ContrlSys/ctr.c **** 	}
 676:ContrlSys/ctr.c **** 	
 677:ContrlSys/ctr.c **** }
 2723              		.loc 1 677 1 view .LVU849
 2724 005e 10BC     		pop	{r4}
 2725              	.LCFI23:
 2726              		.cfi_restore 4
 2727              		.cfi_def_cfa_offset 0
 2728 0060 7047     		bx	lr
 2729              	.LVL187:
 2730              	.L263:
 668:ContrlSys/ctr.c **** 	{
 2731              		.loc 1 668 39 is_stmt 1 view .LVU850
 668:ContrlSys/ctr.c **** 	{
 2732              		.loc 1 668 40 is_stmt 0 view .LVU851
 2733 0062 0131     		adds	r1, r1, #1
 2734              	.LVL188:
 2735              	.L255:
ARM GAS  C:\Users\21945\AppData\Local\Temp\cc3xKqqk.s 			page 80


 668:ContrlSys/ctr.c **** 	{
 2736              		.loc 1 668 10 is_stmt 1 view .LVU852
 668:ContrlSys/ctr.c **** 	{
 2737              		.loc 1 668 2 is_stmt 0 view .LVU853
 2738 0064 B1F5A87F 		cmp	r1, #336
 2739 0068 04D8     		bhi	.L262
 670:ContrlSys/ctr.c **** 		{
 2740              		.loc 1 670 8 view .LVU854
 2741 006a 0023     		movs	r3, #0
 2742              	.LVL189:
 670:ContrlSys/ctr.c **** 		{
 2743              		.loc 1 670 11 is_stmt 1 view .LVU855
 670:ContrlSys/ctr.c **** 		{
 2744              		.loc 1 670 3 is_stmt 0 view .LVU856
 2745 006c 172B     		cmp	r3, #23
 2746 006e F8D8     		bhi	.L263
 660:ContrlSys/ctr.c **** 	uint32_t i,j;
 2747              		.loc 1 660 1 view .LVU857
 2748 0070 10B4     		push	{r4}
 2749              	.LCFI24:
 2750              		.cfi_def_cfa_offset 4
 2751              		.cfi_offset 4, -4
 2752 0072 DCE7     		b	.L251
 2753              	.L262:
 2754              	.LCFI25:
 2755              		.cfi_def_cfa_offset 0
 2756              		.cfi_restore 4
 660:ContrlSys/ctr.c **** 	uint32_t i,j;
 2757              		.loc 1 660 1 view .LVU858
 2758 0074 7047     		bx	lr
 2759              	.L265:
 2760 0076 00BF     		.align	2
 2761              	.L264:
 2762 0078 00000000 		.word	WS2812B_Buf
 2763 007c 00000000 		.word	WS2812B_Bit
 2764              		.cfi_endproc
 2765              	.LFE80:
 2767              		.global	ES
 2768              		.global	Rand_zu
 2769              		.global	rand_num
 2770              		.global	num
 2771              		.global	Flow_flag
 2772              		.global	i_count
 2773              		.global	Fan_num
 2774              		.section	.bss.ES,"aw",%nobits
 2775              		.align	2
 2776              		.set	.LANCHOR0,. + 0
 2779              	ES:
 2780 0000 00000000 		.space	112
 2780      00000000 
 2780      00000000 
 2780      00000000 
 2780      00000000 
 2781              		.section	.bss.Fan_num,"aw",%nobits
 2782              		.align	2
 2785              	Fan_num:
 2786 0000 00000000 		.space	4
ARM GAS  C:\Users\21945\AppData\Local\Temp\cc3xKqqk.s 			page 81


 2787              		.section	.bss.Flow_flag,"aw",%nobits
 2788              		.align	2
 2789              		.set	.LANCHOR4,. + 0
 2792              	Flow_flag:
 2793 0000 00000000 		.space	4
 2794              		.section	.bss.i_count,"aw",%nobits
 2795              		.align	2
 2796              		.set	.LANCHOR3,. + 0
 2799              	i_count:
 2800 0000 00000000 		.space	4
 2801              		.section	.bss.logic_check.0,"aw",%nobits
 2802              		.set	.LANCHOR1,. + 0
 2805              	logic_check.0:
 2806 0000 00       		.space	1
 2807              		.section	.bss.num,"aw",%nobits
 2808              		.set	.LANCHOR2,. + 0
 2811              	num:
 2812 0000 00       		.space	1
 2813              		.section	.bss.rand_num,"aw",%nobits
 2816              	rand_num:
 2817 0000 00       		.space	1
 2818              		.section	.data.Rand_zu,"aw"
 2819              		.align	2
 2822              	Rand_zu:
 2823 0000 00010203 		.ascii	"\000\001\002\003\004"
 2823      04
 2824 0005 04030201 		.ascii	"\004\003\002\001\000"
 2824      00
 2825              		.text
 2826              	.Letext0:
 2827              		.file 3 "c:\\program files (x86)\\gnu arm embedded toolchain\\10 2021.10\\arm-none-eabi\\include\\
 2828              		.file 4 "c:\\program files (x86)\\gnu arm embedded toolchain\\10 2021.10\\arm-none-eabi\\include\\
 2829              		.file 5 "Drivers/CMSIS/Device/ST/STM32F1xx/Include/stm32f103xe.h"
 2830              		.file 6 "Drivers/STM32F1xx_HAL_Driver/Inc/stm32f1xx_hal_def.h"
 2831              		.file 7 "Drivers/STM32F1xx_HAL_Driver/Inc/stm32f1xx_hal_dma.h"
 2832              		.file 8 "Drivers/STM32F1xx_HAL_Driver/Inc/stm32f1xx_hal_tim.h"
 2833              		.file 9 "Core/Inc/tim.h"
 2834              		.file 10 "BSP/WS2812.h"
 2835              		.file 11 "ContrlSys/ctr.h"
 2836              		.file 12 "ContrlSys/vibra.h"
 2837              		.file 13 "Drivers/STM32F1xx_HAL_Driver/Inc/stm32f1xx_hal_cortex.h"
 2838              		.file 14 "Drivers/STM32F1xx_HAL_Driver/Inc/stm32f1xx_hal.h"
 2839              		.file 15 "c:\\program files (x86)\\gnu arm embedded toolchain\\10 2021.10\\arm-none-eabi\\include\
ARM GAS  C:\Users\21945\AppData\Local\Temp\cc3xKqqk.s 			page 82

